
uart.elf:     file format elf32-littlearm


Disassembly of section .text:

87800000 <_start>:
87800000:	e59ff100 	ldr	pc, [pc, #256]	@ 87800108 <FIQ_Handler+0x8>
87800004:	e59ff100 	ldr	pc, [pc, #256]	@ 8780010c <FIQ_Handler+0xc>
87800008:	e59ff100 	ldr	pc, [pc, #256]	@ 87800110 <FIQ_Handler+0x10>
8780000c:	e59ff100 	ldr	pc, [pc, #256]	@ 87800114 <FIQ_Handler+0x14>
87800010:	e59ff100 	ldr	pc, [pc, #256]	@ 87800118 <FIQ_Handler+0x18>
87800014:	e59ff100 	ldr	pc, [pc, #256]	@ 8780011c <FIQ_Handler+0x1c>
87800018:	e59ff100 	ldr	pc, [pc, #256]	@ 87800120 <FIQ_Handler+0x20>
8780001c:	e59ff100 	ldr	pc, [pc, #256]	@ 87800124 <FIQ_Handler+0x24>

87800020 <Reset_Handler>:
87800020:	f10c0080 	cpsid	i
87800024:	ee110f10 	mrc	15, 0, r0, cr1, cr0, {0}
87800028:	e3c00a01 	bic	r0, r0, #4096	@ 0x1000
8780002c:	e3c00004 	bic	r0, r0, #4
87800030:	e3c00002 	bic	r0, r0, #2
87800034:	e3c00b02 	bic	r0, r0, #2048	@ 0x800
87800038:	e3c00001 	bic	r0, r0, #1
8780003c:	ee010f10 	mcr	15, 0, r0, cr1, cr0, {0}
87800040:	e10f0000 	mrs	r0, CPSR
87800044:	e3c0001f 	bic	r0, r0, #31
87800048:	e3800012 	orr	r0, r0, #18
8780004c:	e129f000 	msr	CPSR_fc, r0
87800050:	e59fd0d0 	ldr	sp, [pc, #208]	@ 87800128 <FIQ_Handler+0x28>
87800054:	e10f0000 	mrs	r0, CPSR
87800058:	e3c0001f 	bic	r0, r0, #31
8780005c:	e380001f 	orr	r0, r0, #31
87800060:	e129f000 	msr	CPSR_fc, r0
87800064:	e59fd0c0 	ldr	sp, [pc, #192]	@ 8780012c <FIQ_Handler+0x2c>
87800068:	e10f0000 	mrs	r0, CPSR
8780006c:	e3c0001f 	bic	r0, r0, #31
87800070:	e3800013 	orr	r0, r0, #19
87800074:	e129f000 	msr	CPSR_fc, r0
87800078:	e59fd0b0 	ldr	sp, [pc, #176]	@ 87800130 <FIQ_Handler+0x30>
8780007c:	f1080080 	cpsie	i
87800080:	ea0003e4 	b	87801018 <__main_from_arm>

87800084 <Undefined_Handler>:
87800084:	e59f0080 	ldr	r0, [pc, #128]	@ 8780010c <FIQ_Handler+0xc>
87800088:	e12fff10 	bx	r0

8780008c <SVC_Handler>:
8780008c:	e59f007c 	ldr	r0, [pc, #124]	@ 87800110 <FIQ_Handler+0x10>
87800090:	e12fff10 	bx	r0

87800094 <PrefAbort_Handler>:
87800094:	e59f0078 	ldr	r0, [pc, #120]	@ 87800114 <FIQ_Handler+0x14>
87800098:	e12fff10 	bx	r0

8780009c <DataAbort_Handler>:
8780009c:	e59f0074 	ldr	r0, [pc, #116]	@ 87800118 <FIQ_Handler+0x18>
878000a0:	e12fff10 	bx	r0

878000a4 <NotUsed_Handler>:
878000a4:	e59f0070 	ldr	r0, [pc, #112]	@ 8780011c <FIQ_Handler+0x1c>
878000a8:	e12fff10 	bx	r0

878000ac <IRQ_Handler>:
878000ac:	e52de004 	push	{lr}		@ (str lr, [sp, #-4]!)
878000b0:	e92d100f 	push	{r0, r1, r2, r3, ip}
878000b4:	e14f0000 	mrs	r0, SPSR
878000b8:	e52d0004 	push	{r0}		@ (str r0, [sp, #-4]!)
878000bc:	ee9f1f10 	mrc	15, 4, r1, cr15, cr0, {0}
878000c0:	e2811a02 	add	r1, r1, #8192	@ 0x2000
878000c4:	e591000c 	ldr	r0, [r1, #12]
878000c8:	e92d0003 	push	{r0, r1}
878000cc:	f1020013 	cps	#19
878000d0:	e52de004 	push	{lr}		@ (str lr, [sp, #-4]!)
878000d4:	e59f2058 	ldr	r2, [pc, #88]	@ 87800134 <FIQ_Handler+0x34>
878000d8:	e12fff32 	blx	r2
878000dc:	e49de004 	pop	{lr}		@ (ldr lr, [sp], #4)
878000e0:	f1020012 	cps	#18
878000e4:	e8bd0003 	pop	{r0, r1}
878000e8:	e5810010 	str	r0, [r1, #16]
878000ec:	e49d0004 	pop	{r0}		@ (ldr r0, [sp], #4)
878000f0:	e16ff000 	msr	SPSR_fsxc, r0
878000f4:	e8bd100f 	pop	{r0, r1, r2, r3, ip}
878000f8:	e49de004 	pop	{lr}		@ (ldr lr, [sp], #4)
878000fc:	e25ef004 	subs	pc, lr, #4

87800100 <FIQ_Handler>:
87800100:	e59f001c 	ldr	r0, [pc, #28]	@ 87800124 <FIQ_Handler+0x24>
87800104:	e12fff10 	bx	r0
87800108:	87800020 	strhi	r0, [r0, r0, lsr #32]
8780010c:	87800084 	strhi	r0, [r0, r4, lsl #1]
87800110:	8780008c 	strhi	r0, [r0, ip, lsl #1]
87800114:	87800094 			@ <UNDEFINED> instruction: 0x87800094
87800118:	8780009c 			@ <UNDEFINED> instruction: 0x8780009c
8780011c:	878000a4 	strhi	r0, [r0, r4, lsr #1]
87800120:	878000ac 	strhi	r0, [r0, ip, lsr #1]
87800124:	87800100 	strhi	r0, [r0, r0, lsl #2]
87800128:	80600000 	rsbhi	r0, r0, r0
8780012c:	80400000 	subhi	r0, r0, r0
87800130:	80200000 	eorhi	r0, r0, r0
87800134:	878006c9 	strhi	r0, [r0, r9, asr #13]
87800138:	00002041 	andeq	r2, r0, r1, asr #32
8780013c:	61656100 	cmnvs	r5, r0, lsl #2
87800140:	01006962 	tsteq	r0, r2, ror #18
87800144:	00000016 	andeq	r0, r0, r6, lsl r0
87800148:	412d3705 			@ <UNDEFINED> instruction: 0x412d3705
8780014c:	070a0600 	streq	r0, [sl, -r0, lsl #12]
87800150:	09010841 	stmdbeq	r1, {r0, r6, fp}
87800154:	0c030a02 			@ <UNDEFINED> instruction: 0x0c030a02
87800158:	00000001 	andeq	r0, r0, r1

8780015c <clk_enable>:
8780015c:	f44f 4380 	mov.w	r3, #16384	@ 0x4000
87800160:	f2c0 230c 	movt	r3, #524	@ 0x20c
87800164:	f04f 32ff 	mov.w	r2, #4294967295	@ 0xffffffff
87800168:	669a      	str	r2, [r3, #104]	@ 0x68
8780016a:	66da      	str	r2, [r3, #108]	@ 0x6c
8780016c:	671a      	str	r2, [r3, #112]	@ 0x70
8780016e:	675a      	str	r2, [r3, #116]	@ 0x74
87800170:	679a      	str	r2, [r3, #120]	@ 0x78
87800172:	67da      	str	r2, [r3, #124]	@ 0x7c
87800174:	f8c3 2080 	str.w	r2, [r3, #128]	@ 0x80
87800178:	4770      	bx	lr
8780017a:	bf00      	nop

8780017c <imx6u_clkinit>:
8780017c:	f44f 4380 	mov.w	r3, #16384	@ 0x4000
87800180:	f2c0 230c 	movt	r3, #524	@ 0x20c
87800184:	b430      	push	{r4, r5}
87800186:	68da      	ldr	r2, [r3, #12]
87800188:	0751      	lsls	r1, r2, #29
8780018a:	d407      	bmi.n	8780019c <imx6u_clkinit+0x20>
8780018c:	68da      	ldr	r2, [r3, #12]
8780018e:	f422 7280 	bic.w	r2, r2, #256	@ 0x100
87800192:	60da      	str	r2, [r3, #12]
87800194:	68da      	ldr	r2, [r3, #12]
87800196:	f042 0204 	orr.w	r2, r2, #4
8780019a:	60da      	str	r2, [r3, #12]
8780019c:	f44f 4200 	mov.w	r2, #32768	@ 0x8000
878001a0:	f2c0 220c 	movt	r2, #524	@ 0x20c
878001a4:	f44f 4380 	mov.w	r3, #16384	@ 0x4000
878001a8:	f2c0 230c 	movt	r3, #524	@ 0x20c
878001ac:	f242 0142 	movw	r1, #8258	@ 0x2042
878001b0:	2500      	movs	r5, #0
878001b2:	6011      	str	r1, [r2, #0]
878001b4:	f241 001b 	movw	r0, #4123	@ 0x101b
878001b8:	f2c2 0018 	movt	r0, #8216	@ 0x2018
878001bc:	f241 010c 	movw	r1, #4108	@ 0x100c
878001c0:	f2c1 3111 	movt	r1, #4881	@ 0x1311
878001c4:	68dc      	ldr	r4, [r3, #12]
878001c6:	f024 0404 	bic.w	r4, r4, #4
878001ca:	60dc      	str	r4, [r3, #12]
878001cc:	611d      	str	r5, [r3, #16]
878001ce:	f8d2 4100 	ldr.w	r4, [r2, #256]	@ 0x100
878001d2:	f004 3cc0 	and.w	ip, r4, #3233857728	@ 0xc0c0c0c0
878001d6:	ea4c 0000 	orr.w	r0, ip, r0
878001da:	f8c2 0100 	str.w	r0, [r2, #256]	@ 0x100
878001de:	f8d2 00f0 	ldr.w	r0, [r2, #240]	@ 0xf0
878001e2:	f000 30c0 	and.w	r0, r0, #3233857728	@ 0xc0c0c0c0
878001e6:	4301      	orrs	r1, r0
878001e8:	f8c2 10f0 	str.w	r1, [r2, #240]	@ 0xf0
878001ec:	699a      	ldr	r2, [r3, #24]
878001ee:	f422 2240 	bic.w	r2, r2, #786432	@ 0xc0000
878001f2:	619a      	str	r2, [r3, #24]
878001f4:	699a      	ldr	r2, [r3, #24]
878001f6:	f442 2280 	orr.w	r2, r2, #262144	@ 0x40000
878001fa:	619a      	str	r2, [r3, #24]
878001fc:	695a      	ldr	r2, [r3, #20]
878001fe:	f022 7200 	bic.w	r2, r2, #33554432	@ 0x2000000
87800202:	615a      	str	r2, [r3, #20]
87800204:	6c9a      	ldr	r2, [r3, #72]	@ 0x48
87800206:	0692      	lsls	r2, r2, #26
87800208:	d4fc      	bmi.n	87800204 <imx6u_clkinit+0x88>
8780020a:	695a      	ldr	r2, [r3, #20]
8780020c:	bc30      	pop	{r4, r5}
8780020e:	f422 7240 	bic.w	r2, r2, #768	@ 0x300
87800212:	615a      	str	r2, [r3, #20]
87800214:	695a      	ldr	r2, [r3, #20]
87800216:	f442 7280 	orr.w	r2, r2, #256	@ 0x100
8780021a:	615a      	str	r2, [r3, #20]
8780021c:	69da      	ldr	r2, [r3, #28]
8780021e:	f022 0240 	bic.w	r2, r2, #64	@ 0x40
87800222:	61da      	str	r2, [r3, #28]
87800224:	69da      	ldr	r2, [r3, #28]
87800226:	f022 0207 	bic.w	r2, r2, #7
8780022a:	61da      	str	r2, [r3, #28]
8780022c:	4770      	bx	lr
8780022e:	bf00      	nop

87800230 <led_init>:
87800230:	2200      	movs	r2, #0
87800232:	f2c0 220e 	movt	r2, #526	@ 0x20e
87800236:	f44f 4340 	mov.w	r3, #49152	@ 0xc000
8780023a:	f2c0 2309 	movt	r3, #521	@ 0x209
8780023e:	2005      	movs	r0, #5
87800240:	f241 01b0 	movw	r1, #4272	@ 0x10b0
87800244:	6690      	str	r0, [r2, #104]	@ 0x68
87800246:	f8c2 12f4 	str.w	r1, [r2, #756]	@ 0x2f4
8780024a:	685a      	ldr	r2, [r3, #4]
8780024c:	f042 0208 	orr.w	r2, r2, #8
87800250:	605a      	str	r2, [r3, #4]
87800252:	681a      	ldr	r2, [r3, #0]
87800254:	f022 0208 	bic.w	r2, r2, #8
87800258:	601a      	str	r2, [r3, #0]
8780025a:	4770      	bx	lr

8780025c <led_switch>:
8780025c:	b950      	cbnz	r0, 87800274 <led_switch+0x18>
8780025e:	2901      	cmp	r1, #1
87800260:	d009      	beq.n	87800276 <led_switch+0x1a>
87800262:	b939      	cbnz	r1, 87800274 <led_switch+0x18>
87800264:	f44f 4340 	mov.w	r3, #49152	@ 0xc000
87800268:	f2c0 2309 	movt	r3, #521	@ 0x209
8780026c:	681a      	ldr	r2, [r3, #0]
8780026e:	f042 0208 	orr.w	r2, r2, #8
87800272:	601a      	str	r2, [r3, #0]
87800274:	4770      	bx	lr
87800276:	f44f 4340 	mov.w	r3, #49152	@ 0xc000
8780027a:	f2c0 2309 	movt	r3, #521	@ 0x209
8780027e:	681a      	ldr	r2, [r3, #0]
87800280:	f022 0208 	bic.w	r2, r2, #8
87800284:	601a      	str	r2, [r3, #0]
87800286:	4770      	bx	lr

87800288 <delay_init>:
87800288:	f44f 4200 	mov.w	r2, #32768	@ 0x8000
8780028c:	f2c0 2209 	movt	r2, #521	@ 0x209
87800290:	2100      	movs	r1, #0
87800292:	f44f 4300 	mov.w	r3, #32768	@ 0x8000
87800296:	6011      	str	r1, [r2, #0]
87800298:	6013      	str	r3, [r2, #0]
8780029a:	6813      	ldr	r3, [r2, #0]
8780029c:	041b      	lsls	r3, r3, #16
8780029e:	d4fc      	bmi.n	8780029a <delay_init+0x12>
878002a0:	2340      	movs	r3, #64	@ 0x40
878002a2:	2141      	movs	r1, #65	@ 0x41
878002a4:	6013      	str	r3, [r2, #0]
878002a6:	f04f 33ff 	mov.w	r3, #4294967295	@ 0xffffffff
878002aa:	6051      	str	r1, [r2, #4]
878002ac:	6113      	str	r3, [r2, #16]
878002ae:	6813      	ldr	r3, [r2, #0]
878002b0:	f043 0301 	orr.w	r3, r3, #1
878002b4:	6013      	str	r3, [r2, #0]
878002b6:	4770      	bx	lr

878002b8 <delayus>:
878002b8:	f44f 4100 	mov.w	r1, #32768	@ 0x8000
878002bc:	f2c0 2109 	movt	r1, #521	@ 0x209
878002c0:	b510      	push	{r4, lr}
878002c2:	f04f 0c00 	mov.w	ip, #0
878002c6:	4604      	mov	r4, r0
878002c8:	6a4a      	ldr	r2, [r1, #36]	@ 0x24
878002ca:	6a4b      	ldr	r3, [r1, #36]	@ 0x24
878002cc:	429a      	cmp	r2, r3
878002ce:	d0fc      	beq.n	878002ca <delayus+0x12>
878002d0:	f103 3eff 	add.w	lr, r3, #4294967295	@ 0xffffffff
878002d4:	eb0c 0003 	add.w	r0, ip, r3
878002d8:	44f4      	add	ip, lr
878002da:	bf34      	ite	cc
878002dc:	eba0 0c02 	subcc.w	ip, r0, r2
878002e0:	ebac 0c02 	subcs.w	ip, ip, r2
878002e4:	461a      	mov	r2, r3
878002e6:	45a4      	cmp	ip, r4
878002e8:	d3ef      	bcc.n	878002ca <delayus+0x12>
878002ea:	bd10      	pop	{r4, pc}

878002ec <delayms>:
878002ec:	b1e0      	cbz	r0, 87800328 <delayms+0x3c>
878002ee:	b530      	push	{r4, r5, lr}
878002f0:	f44f 4100 	mov.w	r1, #32768	@ 0x8000
878002f4:	f2c0 2109 	movt	r1, #521	@ 0x209
878002f8:	4605      	mov	r5, r0
878002fa:	2400      	movs	r4, #0
878002fc:	6a4a      	ldr	r2, [r1, #36]	@ 0x24
878002fe:	2000      	movs	r0, #0
87800300:	6a4b      	ldr	r3, [r1, #36]	@ 0x24
87800302:	4293      	cmp	r3, r2
87800304:	d0fc      	beq.n	87800300 <delayms+0x14>
87800306:	f103 3cff 	add.w	ip, r3, #4294967295	@ 0xffffffff
8780030a:	eb03 0e00 	add.w	lr, r3, r0
8780030e:	4460      	add	r0, ip
87800310:	bf8c      	ite	hi
87800312:	ebae 0002 	subhi.w	r0, lr, r2
87800316:	1a80      	subls	r0, r0, r2
87800318:	461a      	mov	r2, r3
8780031a:	f5b0 7f7a 	cmp.w	r0, #1000	@ 0x3e8
8780031e:	d3ef      	bcc.n	87800300 <delayms+0x14>
87800320:	3401      	adds	r4, #1
87800322:	42ac      	cmp	r4, r5
87800324:	d1ea      	bne.n	878002fc <delayms+0x10>
87800326:	bd30      	pop	{r4, r5, pc}
87800328:	4770      	bx	lr
8780032a:	bf00      	nop

8780032c <delay_short>:
8780032c:	b082      	sub	sp, #8
8780032e:	9001      	str	r0, [sp, #4]
87800330:	9b01      	ldr	r3, [sp, #4]
87800332:	1e5a      	subs	r2, r3, #1
87800334:	9201      	str	r2, [sp, #4]
87800336:	2b00      	cmp	r3, #0
87800338:	d1fa      	bne.n	87800330 <delay_short+0x4>
8780033a:	b002      	add	sp, #8
8780033c:	4770      	bx	lr
8780033e:	bf00      	nop

87800340 <delay>:
87800340:	b082      	sub	sp, #8
87800342:	9001      	str	r0, [sp, #4]
87800344:	9b01      	ldr	r3, [sp, #4]
87800346:	1e5a      	subs	r2, r3, #1
87800348:	9201      	str	r2, [sp, #4]
8780034a:	b153      	cbz	r3, 87800362 <delay+0x22>
8780034c:	f240 73ff 	movw	r3, #2047	@ 0x7ff
87800350:	461a      	mov	r2, r3
87800352:	3b01      	subs	r3, #1
87800354:	2a00      	cmp	r2, #0
87800356:	d1fb      	bne.n	87800350 <delay+0x10>
87800358:	9b01      	ldr	r3, [sp, #4]
8780035a:	1e5a      	subs	r2, r3, #1
8780035c:	9201      	str	r2, [sp, #4]
8780035e:	2b00      	cmp	r3, #0
87800360:	d1f4      	bne.n	8780034c <delay+0xc>
87800362:	b002      	add	sp, #8
87800364:	4770      	bx	lr
87800366:	bf00      	nop

87800368 <beep_init>:
87800368:	2200      	movs	r2, #0
8780036a:	f2c0 2229 	movt	r2, #553	@ 0x229
8780036e:	f44f 4340 	mov.w	r3, #49152	@ 0xc000
87800372:	f2c0 230a 	movt	r3, #522	@ 0x20a
87800376:	2005      	movs	r0, #5
87800378:	f241 01b0 	movw	r1, #4272	@ 0x10b0
8780037c:	60d0      	str	r0, [r2, #12]
8780037e:	6511      	str	r1, [r2, #80]	@ 0x50
87800380:	685a      	ldr	r2, [r3, #4]
87800382:	f042 0202 	orr.w	r2, r2, #2
87800386:	605a      	str	r2, [r3, #4]
87800388:	681a      	ldr	r2, [r3, #0]
8780038a:	f042 0202 	orr.w	r2, r2, #2
8780038e:	601a      	str	r2, [r3, #0]
87800390:	4770      	bx	lr
87800392:	bf00      	nop

87800394 <beep_switch>:
87800394:	2801      	cmp	r0, #1
87800396:	d009      	beq.n	878003ac <beep_switch+0x18>
87800398:	b938      	cbnz	r0, 878003aa <beep_switch+0x16>
8780039a:	f44f 4340 	mov.w	r3, #49152	@ 0xc000
8780039e:	f2c0 230a 	movt	r3, #522	@ 0x20a
878003a2:	681a      	ldr	r2, [r3, #0]
878003a4:	f042 0202 	orr.w	r2, r2, #2
878003a8:	601a      	str	r2, [r3, #0]
878003aa:	4770      	bx	lr
878003ac:	f44f 4340 	mov.w	r3, #49152	@ 0xc000
878003b0:	f2c0 230a 	movt	r3, #522	@ 0x20a
878003b4:	681a      	ldr	r2, [r3, #0]
878003b6:	f022 0202 	bic.w	r2, r2, #2
878003ba:	601a      	str	r2, [r3, #0]
878003bc:	4770      	bx	lr
878003be:	bf00      	nop

878003c0 <gpio_pinread>:
878003c0:	6800      	ldr	r0, [r0, #0]
878003c2:	40c8      	lsrs	r0, r1
878003c4:	f000 0001 	and.w	r0, r0, #1
878003c8:	4770      	bx	lr
878003ca:	bf00      	nop

878003cc <gpio_pinwrite>:
878003cc:	2301      	movs	r3, #1
878003ce:	408b      	lsls	r3, r1
878003d0:	b922      	cbnz	r2, 878003dc <gpio_pinwrite+0x10>
878003d2:	6802      	ldr	r2, [r0, #0]
878003d4:	ea22 0303 	bic.w	r3, r2, r3
878003d8:	6003      	str	r3, [r0, #0]
878003da:	4770      	bx	lr
878003dc:	6802      	ldr	r2, [r0, #0]
878003de:	4313      	orrs	r3, r2
878003e0:	6003      	str	r3, [r0, #0]
878003e2:	4770      	bx	lr

878003e4 <gpio_intconfig>:
878003e4:	2301      	movs	r3, #1
878003e6:	b410      	push	{r4}
878003e8:	69c4      	ldr	r4, [r0, #28]
878003ea:	290f      	cmp	r1, #15
878003ec:	fa03 f301 	lsl.w	r3, r3, r1
878003f0:	f102 32ff 	add.w	r2, r2, #4294967295	@ 0xffffffff
878003f4:	ea24 0403 	bic.w	r4, r4, r3
878003f8:	bf88      	it	hi
878003fa:	3910      	subhi	r1, #16
878003fc:	61c4      	str	r4, [r0, #28]
878003fe:	bf94      	ite	ls
87800400:	f100 040c 	addls.w	r4, r0, #12
87800404:	f100 0410 	addhi.w	r4, r0, #16
87800408:	2a04      	cmp	r2, #4
8780040a:	d80e      	bhi.n	8780042a <gpio_intconfig+0x46>
8780040c:	e8df f002 	tbb	[pc, r2]
87800410:	25200316 	strcs	r0, [r0, #-790]!	@ 0xfffffcea
87800414:	68230010 	stmdavs	r3!, {r4}
87800418:	0049      	lsls	r1, r1, #1
8780041a:	2003      	movs	r0, #3
8780041c:	2201      	movs	r2, #1
8780041e:	4088      	lsls	r0, r1
87800420:	ea23 0300 	bic.w	r3, r3, r0
87800424:	408a      	lsls	r2, r1
87800426:	4313      	orrs	r3, r2
87800428:	6023      	str	r3, [r4, #0]
8780042a:	f85d 4b04 	ldr.w	r4, [sp], #4
8780042e:	4770      	bx	lr
87800430:	69c2      	ldr	r2, [r0, #28]
87800432:	f85d 4b04 	ldr.w	r4, [sp], #4
87800436:	4313      	orrs	r3, r2
87800438:	61c3      	str	r3, [r0, #28]
8780043a:	4770      	bx	lr
8780043c:	0049      	lsls	r1, r1, #1
8780043e:	2203      	movs	r2, #3
87800440:	6823      	ldr	r3, [r4, #0]
87800442:	408a      	lsls	r2, r1
87800444:	ea23 0302 	bic.w	r3, r3, r2
87800448:	6023      	str	r3, [r4, #0]
8780044a:	f85d 4b04 	ldr.w	r4, [sp], #4
8780044e:	4770      	bx	lr
87800450:	6823      	ldr	r3, [r4, #0]
87800452:	0049      	lsls	r1, r1, #1
87800454:	2003      	movs	r0, #3
87800456:	2202      	movs	r2, #2
87800458:	e7e1      	b.n	8780041e <gpio_intconfig+0x3a>
8780045a:	0049      	lsls	r1, r1, #1
8780045c:	2303      	movs	r3, #3
8780045e:	6822      	ldr	r2, [r4, #0]
87800460:	408b      	lsls	r3, r1
87800462:	4313      	orrs	r3, r2
87800464:	6023      	str	r3, [r4, #0]
87800466:	f85d 4b04 	ldr.w	r4, [sp], #4
8780046a:	4770      	bx	lr

8780046c <gpio_init>:
8780046c:	b430      	push	{r4, r5}
8780046e:	2301      	movs	r3, #1
87800470:	6815      	ldr	r5, [r2, #0]
87800472:	6944      	ldr	r4, [r0, #20]
87800474:	408b      	lsls	r3, r1
87800476:	ea24 0403 	bic.w	r4, r4, r3
8780047a:	6144      	str	r4, [r0, #20]
8780047c:	43dc      	mvns	r4, r3
8780047e:	b935      	cbnz	r5, 8780048e <gpio_init+0x22>
87800480:	6843      	ldr	r3, [r0, #4]
87800482:	6892      	ldr	r2, [r2, #8]
87800484:	401c      	ands	r4, r3
87800486:	6044      	str	r4, [r0, #4]
87800488:	bc30      	pop	{r4, r5}
8780048a:	f7ff bfab 	b.w	878003e4 <gpio_intconfig>
8780048e:	6845      	ldr	r5, [r0, #4]
87800490:	431d      	orrs	r5, r3
87800492:	6045      	str	r5, [r0, #4]
87800494:	7915      	ldrb	r5, [r2, #4]
87800496:	b935      	cbnz	r5, 878004a6 <gpio_init+0x3a>
87800498:	6803      	ldr	r3, [r0, #0]
8780049a:	6892      	ldr	r2, [r2, #8]
8780049c:	401c      	ands	r4, r3
8780049e:	6004      	str	r4, [r0, #0]
878004a0:	bc30      	pop	{r4, r5}
878004a2:	f7ff bf9f 	b.w	878003e4 <gpio_intconfig>
878004a6:	6804      	ldr	r4, [r0, #0]
878004a8:	6892      	ldr	r2, [r2, #8]
878004aa:	4323      	orrs	r3, r4
878004ac:	6003      	str	r3, [r0, #0]
878004ae:	bc30      	pop	{r4, r5}
878004b0:	f7ff bf98 	b.w	878003e4 <gpio_intconfig>

878004b4 <gpio_enableint>:
878004b4:	2301      	movs	r3, #1
878004b6:	6942      	ldr	r2, [r0, #20]
878004b8:	408b      	lsls	r3, r1
878004ba:	4313      	orrs	r3, r2
878004bc:	6143      	str	r3, [r0, #20]
878004be:	4770      	bx	lr

878004c0 <gpio_disableint>:
878004c0:	2301      	movs	r3, #1
878004c2:	408b      	lsls	r3, r1
878004c4:	6941      	ldr	r1, [r0, #20]
878004c6:	ea21 0103 	bic.w	r1, r1, r3
878004ca:	6141      	str	r1, [r0, #20]
878004cc:	4770      	bx	lr
878004ce:	bf00      	nop

878004d0 <gpio_clearintflags>:
878004d0:	2301      	movs	r3, #1
878004d2:	6982      	ldr	r2, [r0, #24]
878004d4:	408b      	lsls	r3, r1
878004d6:	4313      	orrs	r3, r2
878004d8:	6183      	str	r3, [r0, #24]
878004da:	4770      	bx	lr

878004dc <key_init>:
878004dc:	b500      	push	{lr}
878004de:	2300      	movs	r3, #0
878004e0:	f2c0 230e 	movt	r3, #526	@ 0x20e
878004e4:	b085      	sub	sp, #20
878004e6:	2205      	movs	r2, #5
878004e8:	f24f 0180 	movw	r1, #61568	@ 0xf080
878004ec:	f44f 4040 	mov.w	r0, #49152	@ 0xc000
878004f0:	f2c0 2009 	movt	r0, #521	@ 0x209
878004f4:	f8c3 208c 	str.w	r2, [r3, #140]	@ 0x8c
878004f8:	f8c3 1318 	str.w	r1, [r3, #792]	@ 0x318
878004fc:	aa01      	add	r2, sp, #4
878004fe:	2112      	movs	r1, #18
87800500:	2300      	movs	r3, #0
87800502:	9301      	str	r3, [sp, #4]
87800504:	f7ff ffb2 	bl	8780046c <gpio_init>
87800508:	b005      	add	sp, #20
8780050a:	f85d fb04 	ldr.w	pc, [sp], #4
8780050e:	bf00      	nop

87800510 <key_getvalue>:
87800510:	b538      	push	{r3, r4, r5, lr}
87800512:	f241 04f4 	movw	r4, #4340	@ 0x10f4
87800516:	f2c8 7480 	movt	r4, #34688	@ 0x8780
8780051a:	7823      	ldrb	r3, [r4, #0]
8780051c:	2b01      	cmp	r3, #1
8780051e:	d00b      	beq.n	87800538 <key_getvalue+0x28>
87800520:	2112      	movs	r1, #18
87800522:	f44f 4040 	mov.w	r0, #49152	@ 0xc000
87800526:	f2c0 2009 	movt	r0, #521	@ 0x209
8780052a:	f7ff ff49 	bl	878003c0 <gpio_pinread>
8780052e:	2801      	cmp	r0, #1
87800530:	bf08      	it	eq
87800532:	7020      	strbeq	r0, [r4, #0]
87800534:	2000      	movs	r0, #0
87800536:	bd38      	pop	{r3, r4, r5, pc}
87800538:	2112      	movs	r1, #18
8780053a:	f44f 4040 	mov.w	r0, #49152	@ 0xc000
8780053e:	f2c0 2009 	movt	r0, #521	@ 0x209
87800542:	f7ff ff3d 	bl	878003c0 <gpio_pinread>
87800546:	4605      	mov	r5, r0
87800548:	2800      	cmp	r0, #0
8780054a:	d1e9      	bne.n	87800520 <key_getvalue+0x10>
8780054c:	200a      	movs	r0, #10
8780054e:	f7ff fef7 	bl	87800340 <delay>
87800552:	2112      	movs	r1, #18
87800554:	f44f 4040 	mov.w	r0, #49152	@ 0xc000
87800558:	f2c0 2009 	movt	r0, #521	@ 0x209
8780055c:	7025      	strb	r5, [r4, #0]
8780055e:	f7ff ff2f 	bl	878003c0 <gpio_pinread>
87800562:	fab0 f080 	clz	r0, r0
87800566:	0940      	lsrs	r0, r0, #5
87800568:	bd38      	pop	{r3, r4, r5, pc}
8780056a:	bf00      	nop

8780056c <gpio1_io18_irqhandler>:
8780056c:	200a      	movs	r0, #10
8780056e:	b508      	push	{r3, lr}
87800570:	f7ff fee6 	bl	87800340 <delay>
87800574:	f44f 4040 	mov.w	r0, #49152	@ 0xc000
87800578:	f2c0 2009 	movt	r0, #521	@ 0x209
8780057c:	2112      	movs	r1, #18
8780057e:	f7ff ff1f 	bl	878003c0 <gpio_pinread>
87800582:	b140      	cbz	r0, 87800596 <gpio1_io18_irqhandler+0x2a>
87800584:	f44f 4040 	mov.w	r0, #49152	@ 0xc000
87800588:	f2c0 2009 	movt	r0, #521	@ 0x209
8780058c:	e8bd 4008 	ldmia.w	sp!, {r3, lr}
87800590:	2112      	movs	r1, #18
87800592:	f7ff bf9d 	b.w	878004d0 <gpio_clearintflags>
87800596:	f241 03f8 	movw	r3, #4344	@ 0x10f8
8780059a:	f2c8 7380 	movt	r3, #34688	@ 0x8780
8780059e:	7818      	ldrb	r0, [r3, #0]
878005a0:	fab0 f080 	clz	r0, r0
878005a4:	0940      	lsrs	r0, r0, #5
878005a6:	7018      	strb	r0, [r3, #0]
878005a8:	f7ff fef4 	bl	87800394 <beep_switch>
878005ac:	e7ea      	b.n	87800584 <gpio1_io18_irqhandler+0x18>
878005ae:	bf00      	nop

878005b0 <exit_init>:
878005b0:	b570      	push	{r4, r5, r6, lr}
878005b2:	2300      	movs	r3, #0
878005b4:	f2c0 230e 	movt	r3, #526	@ 0x20e
878005b8:	b084      	sub	sp, #16
878005ba:	f44f 4440 	mov.w	r4, #49152	@ 0xc000
878005be:	f2c0 2409 	movt	r4, #521	@ 0x209
878005c2:	2105      	movs	r1, #5
878005c4:	4620      	mov	r0, r4
878005c6:	f8c3 108c 	str.w	r1, [r3, #140]	@ 0x8c
878005ca:	f24f 0280 	movw	r2, #61568	@ 0xf080
878005ce:	2112      	movs	r1, #18
878005d0:	f8c3 2318 	str.w	r2, [r3, #792]	@ 0x318
878005d4:	aa01      	add	r2, sp, #4
878005d6:	2500      	movs	r5, #0
878005d8:	2304      	movs	r3, #4
878005da:	9501      	str	r5, [sp, #4]
878005dc:	9303      	str	r3, [sp, #12]
878005de:	2301      	movs	r3, #1
878005e0:	f88d 3008 	strb.w	r3, [sp, #8]
878005e4:	f7ff ff42 	bl	8780046c <gpio_init>
878005e8:	ee9f 3f10 	mrc	15, 4, r3, cr15, cr0, {0}
878005ec:	f36f 030f 	bfc	r3, #0, #16
878005f0:	462a      	mov	r2, r5
878005f2:	f503 5380 	add.w	r3, r3, #4096	@ 0x1000
878005f6:	2608      	movs	r6, #8
878005f8:	2063      	movs	r0, #99	@ 0x63
878005fa:	f240 516d 	movw	r1, #1389	@ 0x56d
878005fe:	f2c8 7180 	movt	r1, #34688	@ 0x8780
87800602:	f8c3 610c 	str.w	r6, [r3, #268]	@ 0x10c
87800606:	f000 f855 	bl	878006b4 <system_register_irqhandler>
8780060a:	2112      	movs	r1, #18
8780060c:	4620      	mov	r0, r4
8780060e:	f7ff ff51 	bl	878004b4 <gpio_enableint>
87800612:	b004      	add	sp, #16
87800614:	bd70      	pop	{r4, r5, r6, pc}
87800616:	bf00      	nop

87800618 <default_irqhandler>:
87800618:	e7fe      	b.n	87800618 <default_irqhandler>
8780061a:	bf00      	nop

8780061c <int_init>:
8780061c:	b530      	push	{r4, r5, lr}
8780061e:	ee9f 1f10 	mrc	15, 4, r1, cr15, cr0, {0}
87800622:	f36f 010f 	bfc	r1, #0, #16
87800626:	2300      	movs	r3, #0
87800628:	f501 5e80 	add.w	lr, r1, #4096	@ 0x1000
8780062c:	f04f 34ff 	mov.w	r4, #4294967295	@ 0xffffffff
87800630:	f8de 2004 	ldr.w	r2, [lr, #4]
87800634:	f002 0c1f 	and.w	ip, r2, #31
87800638:	f503 608c 	add.w	r0, r3, #1120	@ 0x460
8780063c:	459c      	cmp	ip, r3
8780063e:	f103 0301 	add.w	r3, r3, #1
87800642:	f841 4020 	str.w	r4, [r1, r0, lsl #2]
87800646:	d1f7      	bne.n	87800638 <int_init+0x1c>
87800648:	f501 5100 	add.w	r1, r1, #8192	@ 0x2000
8780064c:	f241 03fc 	movw	r3, #4348	@ 0x10fc
87800650:	f2c8 7380 	movt	r3, #34688	@ 0x8780
87800654:	22f8      	movs	r2, #248	@ 0xf8
87800656:	2401      	movs	r4, #1
87800658:	f203 5004 	addw	r0, r3, #1284	@ 0x504
8780065c:	604a      	str	r2, [r1, #4]
8780065e:	f240 6219 	movw	r2, #1561	@ 0x619
87800662:	f2c8 7280 	movt	r2, #34688	@ 0x8780
87800666:	2502      	movs	r5, #2
87800668:	608d      	str	r5, [r1, #8]
8780066a:	f8ce 4000 	str.w	r4, [lr]
8780066e:	600c      	str	r4, [r1, #0]
87800670:	2100      	movs	r1, #0
87800672:	f843 1b04 	str.w	r1, [r3], #4
87800676:	e9c3 2100 	strd	r2, r1, [r3]
8780067a:	3308      	adds	r3, #8
8780067c:	4298      	cmp	r0, r3
8780067e:	d1fa      	bne.n	87800676 <int_init+0x5a>
87800680:	2300      	movs	r3, #0
87800682:	f2c8 7380 	movt	r3, #34688	@ 0x8780
87800686:	ee0c 3f10 	mcr	15, 0, r3, cr12, cr0, {0}
8780068a:	bd30      	pop	{r4, r5, pc}

8780068c <system_irqtable_init>:
8780068c:	f241 03fc 	movw	r3, #4348	@ 0x10fc
87800690:	f2c8 7380 	movt	r3, #34688	@ 0x8780
87800694:	f240 6219 	movw	r2, #1561	@ 0x619
87800698:	f2c8 7280 	movt	r2, #34688	@ 0x8780
8780069c:	f203 5004 	addw	r0, r3, #1284	@ 0x504
878006a0:	2100      	movs	r1, #0
878006a2:	f843 1b04 	str.w	r1, [r3], #4
878006a6:	e9c3 2100 	strd	r2, r1, [r3]
878006aa:	3308      	adds	r3, #8
878006ac:	4283      	cmp	r3, r0
878006ae:	d1fa      	bne.n	878006a6 <system_irqtable_init+0x1a>
878006b0:	4770      	bx	lr
878006b2:	bf00      	nop

878006b4 <system_register_irqhandler>:
878006b4:	f241 03fc 	movw	r3, #4348	@ 0x10fc
878006b8:	f2c8 7380 	movt	r3, #34688	@ 0x8780
878006bc:	eb03 03c0 	add.w	r3, r3, r0, lsl #3
878006c0:	e9c3 1201 	strd	r1, r2, [r3, #4]
878006c4:	4770      	bx	lr
878006c6:	bf00      	nop

878006c8 <system_irqhandler>:
878006c8:	f3c0 0009 	ubfx	r0, r0, #0, #10
878006cc:	289f      	cmp	r0, #159	@ 0x9f
878006ce:	d810      	bhi.n	878006f2 <system_irqhandler+0x2a>
878006d0:	b538      	push	{r3, r4, r5, lr}
878006d2:	f241 04fc 	movw	r4, #4348	@ 0x10fc
878006d6:	f2c8 7480 	movt	r4, #34688	@ 0x8780
878006da:	eb04 02c0 	add.w	r2, r4, r0, lsl #3
878006de:	6823      	ldr	r3, [r4, #0]
878006e0:	e9d2 5101 	ldrd	r5, r1, [r2, #4]
878006e4:	3301      	adds	r3, #1
878006e6:	6023      	str	r3, [r4, #0]
878006e8:	47a8      	blx	r5
878006ea:	6823      	ldr	r3, [r4, #0]
878006ec:	3b01      	subs	r3, #1
878006ee:	6023      	str	r3, [r4, #0]
878006f0:	bd38      	pop	{r3, r4, r5, pc}
878006f2:	4770      	bx	lr

878006f4 <epit1_irqhandler>:
878006f4:	b508      	push	{r3, lr}
878006f6:	f241 6300 	movw	r3, #5632	@ 0x1600
878006fa:	f2c8 7380 	movt	r3, #34688	@ 0x8780
878006fe:	2200      	movs	r2, #0
87800700:	f2c0 220d 	movt	r2, #525	@ 0x20d
87800704:	7819      	ldrb	r1, [r3, #0]
87800706:	fab1 f181 	clz	r1, r1
8780070a:	0949      	lsrs	r1, r1, #5
8780070c:	7019      	strb	r1, [r3, #0]
8780070e:	6853      	ldr	r3, [r2, #4]
87800710:	07db      	lsls	r3, r3, #31
87800712:	d407      	bmi.n	87800724 <epit1_irqhandler+0x30>
87800714:	2300      	movs	r3, #0
87800716:	f2c0 230d 	movt	r3, #525	@ 0x20d
8780071a:	685a      	ldr	r2, [r3, #4]
8780071c:	f042 0201 	orr.w	r2, r2, #1
87800720:	605a      	str	r2, [r3, #4]
87800722:	bd08      	pop	{r3, pc}
87800724:	2000      	movs	r0, #0
87800726:	f7ff fd99 	bl	8780025c <led_switch>
8780072a:	e7f3      	b.n	87800714 <epit1_irqhandler+0x20>

8780072c <epit1_init>:
8780072c:	b538      	push	{r3, r4, r5, lr}
8780072e:	f640 73ff 	movw	r3, #4095	@ 0xfff
87800732:	2400      	movs	r4, #0
87800734:	f2c0 240d 	movt	r4, #525	@ 0x20d
87800738:	4298      	cmp	r0, r3
8780073a:	bf28      	it	cs
8780073c:	4618      	movcs	r0, r3
8780073e:	230e      	movs	r3, #14
87800740:	f2c0 1300 	movt	r3, #256	@ 0x100
87800744:	2200      	movs	r2, #0
87800746:	ea43 1300 	orr.w	r3, r3, r0, lsl #4
8780074a:	6022      	str	r2, [r4, #0]
8780074c:	6023      	str	r3, [r4, #0]
8780074e:	60a1      	str	r1, [r4, #8]
87800750:	60e2      	str	r2, [r4, #12]
87800752:	ee9f 3f10 	mrc	15, 4, r3, cr15, cr0, {0}
87800756:	f36f 030f 	bfc	r3, #0, #16
8780075a:	f04f 7580 	mov.w	r5, #16777216	@ 0x1000000
8780075e:	f503 5380 	add.w	r3, r3, #4096	@ 0x1000
87800762:	2058      	movs	r0, #88	@ 0x58
87800764:	f240 61f5 	movw	r1, #1781	@ 0x6f5
87800768:	f2c8 7180 	movt	r1, #34688	@ 0x8780
8780076c:	f8c3 5108 	str.w	r5, [r3, #264]	@ 0x108
87800770:	f7ff ffa0 	bl	878006b4 <system_register_irqhandler>
87800774:	6823      	ldr	r3, [r4, #0]
87800776:	f043 0301 	orr.w	r3, r3, #1
8780077a:	6023      	str	r3, [r4, #0]
8780077c:	bd38      	pop	{r3, r4, r5, pc}
8780077e:	bf00      	nop

87800780 <filtertimer_irqhandler>:
87800780:	b508      	push	{r3, lr}
87800782:	2300      	movs	r3, #0
87800784:	f2c0 230d 	movt	r3, #525	@ 0x20d
87800788:	685a      	ldr	r2, [r3, #4]
8780078a:	07d2      	lsls	r2, r2, #31
8780078c:	d407      	bmi.n	8780079e <filtertimer_irqhandler+0x1e>
8780078e:	2300      	movs	r3, #0
87800790:	f2c0 230d 	movt	r3, #525	@ 0x20d
87800794:	685a      	ldr	r2, [r3, #4]
87800796:	f042 0201 	orr.w	r2, r2, #1
8780079a:	605a      	str	r2, [r3, #4]
8780079c:	bd08      	pop	{r3, pc}
8780079e:	681a      	ldr	r2, [r3, #0]
878007a0:	f44f 4040 	mov.w	r0, #49152	@ 0xc000
878007a4:	f2c0 2009 	movt	r0, #521	@ 0x209
878007a8:	2112      	movs	r1, #18
878007aa:	f022 0201 	bic.w	r2, r2, #1
878007ae:	601a      	str	r2, [r3, #0]
878007b0:	f7ff fe06 	bl	878003c0 <gpio_pinread>
878007b4:	2800      	cmp	r0, #0
878007b6:	d1ea      	bne.n	8780078e <filtertimer_irqhandler+0xe>
878007b8:	f241 6301 	movw	r3, #5633	@ 0x1601
878007bc:	f2c8 7380 	movt	r3, #34688	@ 0x8780
878007c0:	7818      	ldrb	r0, [r3, #0]
878007c2:	fab0 f080 	clz	r0, r0
878007c6:	0940      	lsrs	r0, r0, #5
878007c8:	7018      	strb	r0, [r3, #0]
878007ca:	f7ff fde3 	bl	87800394 <beep_switch>
878007ce:	e7de      	b.n	8780078e <filtertimer_irqhandler+0xe>

878007d0 <gpio1_16_31_irqhandler>:
878007d0:	2300      	movs	r3, #0
878007d2:	f2c0 230d 	movt	r3, #525	@ 0x20d
878007d6:	b410      	push	{r4}
878007d8:	f44f 5491 	mov.w	r4, #4640	@ 0x1220
878007dc:	f2c0 040a 	movt	r4, #10
878007e0:	681a      	ldr	r2, [r3, #0]
878007e2:	f44f 4040 	mov.w	r0, #49152	@ 0xc000
878007e6:	f2c0 2009 	movt	r0, #521	@ 0x209
878007ea:	2112      	movs	r1, #18
878007ec:	f022 0201 	bic.w	r2, r2, #1
878007f0:	601a      	str	r2, [r3, #0]
878007f2:	609c      	str	r4, [r3, #8]
878007f4:	f85d 4b04 	ldr.w	r4, [sp], #4
878007f8:	681a      	ldr	r2, [r3, #0]
878007fa:	f042 0201 	orr.w	r2, r2, #1
878007fe:	601a      	str	r2, [r3, #0]
87800800:	f7ff be66 	b.w	878004d0 <gpio_clearintflags>

87800804 <filterkey_init>:
87800804:	b570      	push	{r4, r5, r6, lr}
87800806:	2300      	movs	r3, #0
87800808:	f2c0 230e 	movt	r3, #526	@ 0x20e
8780080c:	b084      	sub	sp, #16
8780080e:	f44f 4640 	mov.w	r6, #49152	@ 0xc000
87800812:	f2c0 2609 	movt	r6, #521	@ 0x209
87800816:	2105      	movs	r1, #5
87800818:	4630      	mov	r0, r6
8780081a:	f8c3 108c 	str.w	r1, [r3, #140]	@ 0x8c
8780081e:	f24f 0280 	movw	r2, #61568	@ 0xf080
87800822:	2112      	movs	r1, #18
87800824:	f8c3 2318 	str.w	r2, [r3, #792]	@ 0x318
87800828:	aa01      	add	r2, sp, #4
8780082a:	2400      	movs	r4, #0
8780082c:	2304      	movs	r3, #4
8780082e:	9401      	str	r4, [sp, #4]
87800830:	9303      	str	r3, [sp, #12]
87800832:	2301      	movs	r3, #1
87800834:	f88d 3008 	strb.w	r3, [sp, #8]
87800838:	f7ff fe18 	bl	8780046c <gpio_init>
8780083c:	ee9f 3f10 	mrc	15, 4, r3, cr15, cr0, {0}
87800840:	4625      	mov	r5, r4
87800842:	2208      	movs	r2, #8
87800844:	f6cf 75ff 	movt	r5, #65535	@ 0xffff
87800848:	2063      	movs	r0, #99	@ 0x63
8780084a:	402b      	ands	r3, r5
8780084c:	f240 71d1 	movw	r1, #2001	@ 0x7d1
87800850:	f2c8 7180 	movt	r1, #34688	@ 0x8780
87800854:	f503 5380 	add.w	r3, r3, #4096	@ 0x1000
87800858:	f8c3 210c 	str.w	r2, [r3, #268]	@ 0x10c
8780085c:	4622      	mov	r2, r4
8780085e:	f7ff ff29 	bl	878006b4 <system_register_irqhandler>
87800862:	2112      	movs	r1, #18
87800864:	4630      	mov	r0, r6
87800866:	f7ff fe25 	bl	878004b4 <gpio_enableint>
8780086a:	4623      	mov	r3, r4
8780086c:	f2c0 230d 	movt	r3, #525	@ 0x20d
87800870:	210e      	movs	r1, #14
87800872:	f2c0 1100 	movt	r1, #256	@ 0x100
87800876:	f44f 5291 	mov.w	r2, #4640	@ 0x1220
8780087a:	f2c0 020a 	movt	r2, #10
8780087e:	601c      	str	r4, [r3, #0]
87800880:	6019      	str	r1, [r3, #0]
87800882:	609a      	str	r2, [r3, #8]
87800884:	60dc      	str	r4, [r3, #12]
87800886:	ee9f 3f10 	mrc	15, 4, r3, cr15, cr0, {0}
8780088a:	402b      	ands	r3, r5
8780088c:	4622      	mov	r2, r4
8780088e:	f503 5380 	add.w	r3, r3, #4096	@ 0x1000
87800892:	f04f 7580 	mov.w	r5, #16777216	@ 0x1000000
87800896:	2058      	movs	r0, #88	@ 0x58
87800898:	f240 7181 	movw	r1, #1921	@ 0x781
8780089c:	f2c8 7180 	movt	r1, #34688	@ 0x8780
878008a0:	f8c3 5108 	str.w	r5, [r3, #264]	@ 0x108
878008a4:	f7ff ff06 	bl	878006b4 <system_register_irqhandler>
878008a8:	b004      	add	sp, #16
878008aa:	bd70      	pop	{r4, r5, r6, pc}

878008ac <filtertimer_init>:
878008ac:	2300      	movs	r3, #0
878008ae:	f2c0 230d 	movt	r3, #525	@ 0x20d
878008b2:	b410      	push	{r4}
878008b4:	2200      	movs	r2, #0
878008b6:	210e      	movs	r1, #14
878008b8:	f2c0 1100 	movt	r1, #256	@ 0x100
878008bc:	601a      	str	r2, [r3, #0]
878008be:	6019      	str	r1, [r3, #0]
878008c0:	6098      	str	r0, [r3, #8]
878008c2:	60da      	str	r2, [r3, #12]
878008c4:	ee9f 3f10 	mrc	15, 4, r3, cr15, cr0, {0}
878008c8:	f36f 030f 	bfc	r3, #0, #16
878008cc:	f04f 7480 	mov.w	r4, #16777216	@ 0x1000000
878008d0:	f503 5380 	add.w	r3, r3, #4096	@ 0x1000
878008d4:	f240 7181 	movw	r1, #1921	@ 0x781
878008d8:	f2c8 7180 	movt	r1, #34688	@ 0x8780
878008dc:	2058      	movs	r0, #88	@ 0x58
878008de:	f8c3 4108 	str.w	r4, [r3, #264]	@ 0x108
878008e2:	f85d 4b04 	ldr.w	r4, [sp], #4
878008e6:	f7ff bee5 	b.w	878006b4 <system_register_irqhandler>
878008ea:	bf00      	nop

878008ec <filtertimer_stop>:
878008ec:	2300      	movs	r3, #0
878008ee:	f2c0 230d 	movt	r3, #525	@ 0x20d
878008f2:	681a      	ldr	r2, [r3, #0]
878008f4:	f022 0201 	bic.w	r2, r2, #1
878008f8:	601a      	str	r2, [r3, #0]
878008fa:	4770      	bx	lr

878008fc <filtertimer_restart>:
878008fc:	2300      	movs	r3, #0
878008fe:	f2c0 230d 	movt	r3, #525	@ 0x20d
87800902:	681a      	ldr	r2, [r3, #0]
87800904:	f022 0201 	bic.w	r2, r2, #1
87800908:	601a      	str	r2, [r3, #0]
8780090a:	6098      	str	r0, [r3, #8]
8780090c:	681a      	ldr	r2, [r3, #0]
8780090e:	f042 0201 	orr.w	r2, r2, #1
87800912:	601a      	str	r2, [r3, #0]
87800914:	4770      	bx	lr
87800916:	bf00      	nop

87800918 <uart_init>:
87800918:	2200      	movs	r2, #0
8780091a:	f2c0 220e 	movt	r2, #526	@ 0x20e
8780091e:	2300      	movs	r3, #0
87800920:	f2c0 2302 	movt	r3, #514	@ 0x202
87800924:	b410      	push	{r4}
87800926:	2000      	movs	r0, #0
87800928:	f241 01b0 	movw	r1, #4272	@ 0x10b0
8780092c:	f8c2 0084 	str.w	r0, [r2, #132]	@ 0x84
87800930:	2403      	movs	r4, #3
87800932:	f8c2 0088 	str.w	r0, [r2, #136]	@ 0x88
87800936:	f8c2 4624 	str.w	r4, [r2, #1572]	@ 0x624
8780093a:	f8c2 1310 	str.w	r1, [r2, #784]	@ 0x310
8780093e:	f8c2 1314 	str.w	r1, [r2, #788]	@ 0x314
87800942:	f8d3 2080 	ldr.w	r2, [r3, #128]	@ 0x80
87800946:	f022 0201 	bic.w	r2, r2, #1
8780094a:	f8c3 2080 	str.w	r2, [r3, #128]	@ 0x80
8780094e:	f8d3 2084 	ldr.w	r2, [r3, #132]	@ 0x84
87800952:	f022 0201 	bic.w	r2, r2, #1
87800956:	f8c3 2084 	str.w	r2, [r3, #132]	@ 0x84
8780095a:	f8d3 2084 	ldr.w	r2, [r3, #132]	@ 0x84
8780095e:	07d2      	lsls	r2, r2, #31
87800960:	d5fb      	bpl.n	8780095a <uart_init+0x42>
87800962:	2200      	movs	r2, #0
87800964:	f8c3 2080 	str.w	r2, [r3, #128]	@ 0x80
87800968:	f44f 7420 	mov.w	r4, #640	@ 0x280
8780096c:	2047      	movs	r0, #71	@ 0x47
8780096e:	f8d3 2080 	ldr.w	r2, [r3, #128]	@ 0x80
87800972:	f640 4134 	movw	r1, #3124	@ 0xc34
87800976:	f422 4280 	bic.w	r2, r2, #16384	@ 0x4000
8780097a:	f8c3 2080 	str.w	r2, [r3, #128]	@ 0x80
8780097e:	f8d3 2084 	ldr.w	r2, [r3, #132]	@ 0x84
87800982:	f442 4280 	orr.w	r2, r2, #16384	@ 0x4000
87800986:	f042 0226 	orr.w	r2, r2, #38	@ 0x26
8780098a:	f8c3 2084 	str.w	r2, [r3, #132]	@ 0x84
8780098e:	f8d3 2088 	ldr.w	r2, [r3, #136]	@ 0x88
87800992:	f042 0204 	orr.w	r2, r2, #4
87800996:	f8c3 2088 	str.w	r2, [r3, #136]	@ 0x88
8780099a:	f8c3 4090 	str.w	r4, [r3, #144]	@ 0x90
8780099e:	f8c3 00a4 	str.w	r0, [r3, #164]	@ 0xa4
878009a2:	f8c3 10a8 	str.w	r1, [r3, #168]	@ 0xa8
878009a6:	f85d 4b04 	ldr.w	r4, [sp], #4
878009aa:	f8d3 2080 	ldr.w	r2, [r3, #128]	@ 0x80
878009ae:	f042 0201 	orr.w	r2, r2, #1
878009b2:	f8c3 2080 	str.w	r2, [r3, #128]	@ 0x80
878009b6:	4770      	bx	lr

878009b8 <uart_io_init>:
878009b8:	2300      	movs	r3, #0
878009ba:	f2c0 230e 	movt	r3, #526	@ 0x20e
878009be:	2100      	movs	r1, #0
878009c0:	f241 02b0 	movw	r2, #4272	@ 0x10b0
878009c4:	2003      	movs	r0, #3
878009c6:	f8c3 1084 	str.w	r1, [r3, #132]	@ 0x84
878009ca:	f8c3 1088 	str.w	r1, [r3, #136]	@ 0x88
878009ce:	f8c3 0624 	str.w	r0, [r3, #1572]	@ 0x624
878009d2:	f8c3 2310 	str.w	r2, [r3, #784]	@ 0x310
878009d6:	f8c3 2314 	str.w	r2, [r3, #788]	@ 0x314
878009da:	4770      	bx	lr

878009dc <uart_setbaudrate>:
878009dc:	e92d 4ff0 	stmdb	sp!, {r4, r5, r6, r7, r8, r9, sl, fp, lr}
878009e0:	460f      	mov	r7, r1
878009e2:	4683      	mov	fp, r0
878009e4:	b087      	sub	sp, #28
878009e6:	4692      	mov	sl, r2
878009e8:	010e      	lsls	r6, r1, #4
878009ea:	f000 80f1 	beq.w	87800bd0 <uart_setbaudrate+0x1f4>
878009ee:	4631      	mov	r1, r6
878009f0:	4610      	mov	r0, r2
878009f2:	460c      	mov	r4, r1
878009f4:	f000 fa5e 	bl	87800eb4 <__aeabi_uidivmod>
878009f8:	4620      	mov	r0, r4
878009fa:	2900      	cmp	r1, #0
878009fc:	d1f9      	bne.n	878009f2 <uart_setbaudrate+0x16>
878009fe:	4621      	mov	r1, r4
87800a00:	4650      	mov	r0, sl
87800a02:	f000 f929 	bl	87800c58 <__udivsi3>
87800a06:	4621      	mov	r1, r4
87800a08:	4681      	mov	r9, r0
87800a0a:	4630      	mov	r0, r6
87800a0c:	f000 f924 	bl	87800c58 <__udivsi3>
87800a10:	4606      	mov	r6, r0
87800a12:	f64f 73f9 	movw	r3, #65529	@ 0xfff9
87800a16:	f2c0 0306 	movt	r3, #6
87800a1a:	4599      	cmp	r9, r3
87800a1c:	bf98      	it	ls
87800a1e:	f5b6 3f80 	cmpls.w	r6, #65536	@ 0x10000
87800a22:	f109 32ff 	add.w	r2, r9, #4294967295	@ 0xffffffff
87800a26:	bf2c      	ite	cs
87800a28:	2301      	movcs	r3, #1
87800a2a:	2300      	movcc	r3, #0
87800a2c:	d27a      	bcs.n	87800b24 <uart_setbaudrate+0x148>
87800a2e:	9301      	str	r3, [sp, #4]
87800a30:	f248 0301 	movw	r3, #32769	@ 0x8001
87800a34:	f2c8 0300 	movt	r3, #32768	@ 0x8000
87800a38:	9600      	str	r6, [sp, #0]
87800a3a:	fba3 3202 	umull	r3, r2, r3, r2
87800a3e:	ea4f 1309 	mov.w	r3, r9, lsl #4
87800a42:	0bd2      	lsrs	r2, r2, #15
87800a44:	1e51      	subs	r1, r2, #1
87800a46:	3201      	adds	r2, #1
87800a48:	9204      	str	r2, [sp, #16]
87800a4a:	461a      	mov	r2, r3
87800a4c:	2905      	cmp	r1, #5
87800a4e:	4654      	mov	r4, sl
87800a50:	bf88      	it	hi
87800a52:	2105      	movhi	r1, #5
87800a54:	f04f 0500 	mov.w	r5, #0
87800a58:	bf9e      	ittt	ls
87800a5a:	f241 00d4 	movwls	r0, #4308	@ 0x10d4
87800a5e:	f2c8 7080 	movtls	r0, #34688	@ 0x8780
87800a62:	f850 1021 	ldrls.w	r1, [r0, r1, lsl #2]
87800a66:	9105      	str	r1, [sp, #20]
87800a68:	b1e3      	cbz	r3, 87800aa4 <uart_setbaudrate+0xc8>
87800a6a:	f8cd 9008 	str.w	r9, [sp, #8]
87800a6e:	461a      	mov	r2, r3
87800a70:	4699      	mov	r9, r3
87800a72:	2500      	movs	r5, #0
87800a74:	4620      	mov	r0, r4
87800a76:	462b      	mov	r3, r5
87800a78:	4629      	mov	r1, r5
87800a7a:	4614      	mov	r4, r2
87800a7c:	4690      	mov	r8, r2
87800a7e:	f000 fa27 	bl	87800ed0 <__aeabi_uldivmod>
87800a82:	2a00      	cmp	r2, #0
87800a84:	d1f5      	bne.n	87800a72 <uart_setbaudrate+0x96>
87800a86:	4621      	mov	r1, r4
87800a88:	4650      	mov	r0, sl
87800a8a:	f8cd 900c 	str.w	r9, [sp, #12]
87800a8e:	f000 f8e3 	bl	87800c58 <__udivsi3>
87800a92:	9b03      	ldr	r3, [sp, #12]
87800a94:	4604      	mov	r4, r0
87800a96:	4641      	mov	r1, r8
87800a98:	f8dd 9008 	ldr.w	r9, [sp, #8]
87800a9c:	4618      	mov	r0, r3
87800a9e:	f000 f8db 	bl	87800c58 <__udivsi3>
87800aa2:	4602      	mov	r2, r0
87800aa4:	9b00      	ldr	r3, [sp, #0]
87800aa6:	9901      	ldr	r1, [sp, #4]
87800aa8:	fb03 f505 	mul.w	r5, r3, r5
87800aac:	fb04 5501 	mla	r5, r4, r1, r5
87800ab0:	fba3 0104 	umull	r0, r1, r3, r4
87800ab4:	2300      	movs	r3, #0
87800ab6:	4429      	add	r1, r5
87800ab8:	f000 fa0a 	bl	87800ed0 <__aeabi_uldivmod>
87800abc:	42b8      	cmp	r0, r7
87800abe:	f171 0300 	sbcs.w	r3, r1, #0
87800ac2:	d32b      	bcc.n	87800b1c <uart_setbaudrate+0x140>
87800ac4:	1bc0      	subs	r0, r0, r7
87800ac6:	f161 0200 	sbc.w	r2, r1, #0
87800aca:	f248 531f 	movw	r3, #34079	@ 0x851f
87800ace:	f2c5 13eb 	movt	r3, #20971	@ 0x51eb
87800ad2:	fba3 7307 	umull	r7, r3, r3, r7
87800ad6:	095b      	lsrs	r3, r3, #5
87800ad8:	eb03 0343 	add.w	r3, r3, r3, lsl #1
87800adc:	4298      	cmp	r0, r3
87800ade:	f172 0200 	sbcs.w	r2, r2, #0
87800ae2:	d218      	bcs.n	87800b16 <uart_setbaudrate+0x13a>
87800ae4:	f8db 3090 	ldr.w	r3, [fp, #144]	@ 0x90
87800ae8:	3e01      	subs	r6, #1
87800aea:	9a05      	ldr	r2, [sp, #20]
87800aec:	4648      	mov	r0, r9
87800aee:	f423 7360 	bic.w	r3, r3, #896	@ 0x380
87800af2:	f8cb 3090 	str.w	r3, [fp, #144]	@ 0x90
87800af6:	9904      	ldr	r1, [sp, #16]
87800af8:	b2b6      	uxth	r6, r6
87800afa:	f8db 3090 	ldr.w	r3, [fp, #144]	@ 0x90
87800afe:	ea43 13c2 	orr.w	r3, r3, r2, lsl #7
87800b02:	f8cb 3090 	str.w	r3, [fp, #144]	@ 0x90
87800b06:	f8cb 60a4 	str.w	r6, [fp, #164]	@ 0xa4
87800b0a:	f000 f8a5 	bl	87800c58 <__udivsi3>
87800b0e:	1e43      	subs	r3, r0, #1
87800b10:	b29b      	uxth	r3, r3
87800b12:	f8cb 30a8 	str.w	r3, [fp, #168]	@ 0xa8
87800b16:	b007      	add	sp, #28
87800b18:	e8bd 8ff0 	ldmia.w	sp!, {r4, r5, r6, r7, r8, r9, sl, fp, pc}
87800b1c:	1a38      	subs	r0, r7, r0
87800b1e:	eb61 0241 	sbc.w	r2, r1, r1, lsl #1
87800b22:	e7d2      	b.n	87800aca <uart_setbaudrate+0xee>
87800b24:	f646 53b9 	movw	r3, #28089	@ 0x6db9
87800b28:	f2c2 4393 	movt	r3, #9363	@ 0x2493
87800b2c:	1e74      	subs	r4, r6, #1
87800b2e:	f248 0801 	movw	r8, #32769	@ 0x8001
87800b32:	f2c8 0800 	movt	r8, #32768	@ 0x8000
87800b36:	4630      	mov	r0, r6
87800b38:	fba3 1302 	umull	r1, r3, r3, r2
87800b3c:	1ad2      	subs	r2, r2, r3
87800b3e:	eb03 0352 	add.w	r3, r3, r2, lsr #1
87800b42:	fba8 2404 	umull	r2, r4, r8, r4
87800b46:	0c9b      	lsrs	r3, r3, #18
87800b48:	0be4      	lsrs	r4, r4, #15
87800b4a:	3301      	adds	r3, #1
87800b4c:	3401      	adds	r4, #1
87800b4e:	429c      	cmp	r4, r3
87800b50:	bf38      	it	cc
87800b52:	461c      	movcc	r4, r3
87800b54:	4621      	mov	r1, r4
87800b56:	f000 f87f 	bl	87800c58 <__udivsi3>
87800b5a:	454c      	cmp	r4, r9
87800b5c:	4605      	mov	r5, r0
87800b5e:	d90c      	bls.n	87800b7a <uart_setbaudrate+0x19e>
87800b60:	42b4      	cmp	r4, r6
87800b62:	d929      	bls.n	87800bb8 <uart_setbaudrate+0x1dc>
87800b64:	2601      	movs	r6, #1
87800b66:	2200      	movs	r2, #0
87800b68:	4654      	mov	r4, sl
87800b6a:	e9cd 6200 	strd	r6, r2, [sp]
87800b6e:	2310      	movs	r3, #16
87800b70:	2205      	movs	r2, #5
87800b72:	46b1      	mov	r9, r6
87800b74:	e9cd 6204 	strd	r6, r2, [sp, #16]
87800b78:	e777      	b.n	87800a6a <uart_setbaudrate+0x8e>
87800b7a:	4648      	mov	r0, r9
87800b7c:	4621      	mov	r1, r4
87800b7e:	f000 f86b 	bl	87800c58 <__udivsi3>
87800b82:	1e41      	subs	r1, r0, #1
87800b84:	42b4      	cmp	r4, r6
87800b86:	ea4f 1300 	mov.w	r3, r0, lsl #4
87800b8a:	4681      	mov	r9, r0
87800b8c:	bf88      	it	hi
87800b8e:	2601      	movhi	r6, #1
87800b90:	fba8 8101 	umull	r8, r1, r8, r1
87800b94:	bf97      	itett	ls
87800b96:	2000      	movls	r0, #0
87800b98:	2000      	movhi	r0, #0
87800b9a:	462e      	movls	r6, r5
87800b9c:	9500      	strls	r5, [sp, #0]
87800b9e:	ea4f 31d1 	mov.w	r1, r1, lsr #15
87800ba2:	bf98      	it	ls
87800ba4:	9001      	strls	r0, [sp, #4]
87800ba6:	f101 0201 	add.w	r2, r1, #1
87800baa:	bf88      	it	hi
87800bac:	e9cd 6000 	strdhi	r6, r0, [sp]
87800bb0:	9204      	str	r2, [sp, #16]
87800bb2:	3901      	subs	r1, #1
87800bb4:	461a      	mov	r2, r3
87800bb6:	e749      	b.n	87800a4c <uart_setbaudrate+0x70>
87800bb8:	2201      	movs	r2, #1
87800bba:	2300      	movs	r3, #0
87800bbc:	2105      	movs	r1, #5
87800bbe:	9301      	str	r3, [sp, #4]
87800bc0:	4654      	mov	r4, sl
87800bc2:	4606      	mov	r6, r0
87800bc4:	2310      	movs	r3, #16
87800bc6:	4691      	mov	r9, r2
87800bc8:	9000      	str	r0, [sp, #0]
87800bca:	9204      	str	r2, [sp, #16]
87800bcc:	9105      	str	r1, [sp, #20]
87800bce:	e74c      	b.n	87800a6a <uart_setbaudrate+0x8e>
87800bd0:	4691      	mov	r9, r2
87800bd2:	e71e      	b.n	87800a12 <uart_setbaudrate+0x36>

87800bd4 <uart_disable>:
87800bd4:	f8d0 3080 	ldr.w	r3, [r0, #128]	@ 0x80
87800bd8:	f023 0301 	bic.w	r3, r3, #1
87800bdc:	f8c0 3080 	str.w	r3, [r0, #128]	@ 0x80
87800be0:	4770      	bx	lr
87800be2:	bf00      	nop

87800be4 <uart_enable>:
87800be4:	f8d0 3080 	ldr.w	r3, [r0, #128]	@ 0x80
87800be8:	f043 0301 	orr.w	r3, r3, #1
87800bec:	f8c0 3080 	str.w	r3, [r0, #128]	@ 0x80
87800bf0:	4770      	bx	lr
87800bf2:	bf00      	nop

87800bf4 <uart_softreset>:
87800bf4:	f8d0 3084 	ldr.w	r3, [r0, #132]	@ 0x84
87800bf8:	f023 0301 	bic.w	r3, r3, #1
87800bfc:	f8c0 3084 	str.w	r3, [r0, #132]	@ 0x84
87800c00:	f8d0 3084 	ldr.w	r3, [r0, #132]	@ 0x84
87800c04:	07db      	lsls	r3, r3, #31
87800c06:	d5fb      	bpl.n	87800c00 <uart_softreset+0xc>
87800c08:	4770      	bx	lr
87800c0a:	bf00      	nop

87800c0c <putc>:
87800c0c:	2200      	movs	r2, #0
87800c0e:	f2c0 2202 	movt	r2, #514	@ 0x202
87800c12:	f8d2 3098 	ldr.w	r3, [r2, #152]	@ 0x98
87800c16:	071b      	lsls	r3, r3, #28
87800c18:	d5fb      	bpl.n	87800c12 <putc+0x6>
87800c1a:	6410      	str	r0, [r2, #64]	@ 0x40
87800c1c:	4770      	bx	lr
87800c1e:	bf00      	nop

87800c20 <puts>:
87800c20:	7801      	ldrb	r1, [r0, #0]
87800c22:	b159      	cbz	r1, 87800c3c <puts+0x1c>
87800c24:	2200      	movs	r2, #0
87800c26:	f2c0 2202 	movt	r2, #514	@ 0x202
87800c2a:	f8d2 3098 	ldr.w	r3, [r2, #152]	@ 0x98
87800c2e:	071b      	lsls	r3, r3, #28
87800c30:	d5fb      	bpl.n	87800c2a <puts+0xa>
87800c32:	6411      	str	r1, [r2, #64]	@ 0x40
87800c34:	f810 1f01 	ldrb.w	r1, [r0, #1]!
87800c38:	2900      	cmp	r1, #0
87800c3a:	d1f6      	bne.n	87800c2a <puts+0xa>
87800c3c:	4770      	bx	lr
87800c3e:	bf00      	nop

87800c40 <getc>:
87800c40:	2200      	movs	r2, #0
87800c42:	f2c0 2202 	movt	r2, #514	@ 0x202
87800c46:	f8d2 3098 	ldr.w	r3, [r2, #152]	@ 0x98
87800c4a:	07db      	lsls	r3, r3, #31
87800c4c:	d5fb      	bpl.n	87800c46 <getc+0x6>
87800c4e:	6810      	ldr	r0, [r2, #0]
87800c50:	b2c0      	uxtb	r0, r0
87800c52:	4770      	bx	lr

87800c54 <raise>:
87800c54:	4770      	bx	lr
87800c56:	bf00      	nop

87800c58 <__udivsi3>:
87800c58:	1e4a      	subs	r2, r1, #1
87800c5a:	bf08      	it	eq
87800c5c:	4770      	bxeq	lr
87800c5e:	f0c0 8124 	bcc.w	87800eaa <__udivsi3+0x252>
87800c62:	4288      	cmp	r0, r1
87800c64:	f240 8116 	bls.w	87800e94 <__udivsi3+0x23c>
87800c68:	4211      	tst	r1, r2
87800c6a:	f000 8117 	beq.w	87800e9c <__udivsi3+0x244>
87800c6e:	fab0 f380 	clz	r3, r0
87800c72:	fab1 f281 	clz	r2, r1
87800c76:	eba2 0303 	sub.w	r3, r2, r3
87800c7a:	f1c3 031f 	rsb	r3, r3, #31
87800c7e:	a204      	add	r2, pc, #16	@ (adr r2, 87800c90 <__udivsi3+0x38>)
87800c80:	eb02 1303 	add.w	r3, r2, r3, lsl #4
87800c84:	f04f 0200 	mov.w	r2, #0
87800c88:	469f      	mov	pc, r3
87800c8a:	bf00      	nop
87800c8c:	f3af 8000 	nop.w
87800c90:	ebb0 7fc1 	cmp.w	r0, r1, lsl #31
87800c94:	bf00      	nop
87800c96:	eb42 0202 	adc.w	r2, r2, r2
87800c9a:	bf28      	it	cs
87800c9c:	eba0 70c1 	subcs.w	r0, r0, r1, lsl #31
87800ca0:	ebb0 7f81 	cmp.w	r0, r1, lsl #30
87800ca4:	bf00      	nop
87800ca6:	eb42 0202 	adc.w	r2, r2, r2
87800caa:	bf28      	it	cs
87800cac:	eba0 7081 	subcs.w	r0, r0, r1, lsl #30
87800cb0:	ebb0 7f41 	cmp.w	r0, r1, lsl #29
87800cb4:	bf00      	nop
87800cb6:	eb42 0202 	adc.w	r2, r2, r2
87800cba:	bf28      	it	cs
87800cbc:	eba0 7041 	subcs.w	r0, r0, r1, lsl #29
87800cc0:	ebb0 7f01 	cmp.w	r0, r1, lsl #28
87800cc4:	bf00      	nop
87800cc6:	eb42 0202 	adc.w	r2, r2, r2
87800cca:	bf28      	it	cs
87800ccc:	eba0 7001 	subcs.w	r0, r0, r1, lsl #28
87800cd0:	ebb0 6fc1 	cmp.w	r0, r1, lsl #27
87800cd4:	bf00      	nop
87800cd6:	eb42 0202 	adc.w	r2, r2, r2
87800cda:	bf28      	it	cs
87800cdc:	eba0 60c1 	subcs.w	r0, r0, r1, lsl #27
87800ce0:	ebb0 6f81 	cmp.w	r0, r1, lsl #26
87800ce4:	bf00      	nop
87800ce6:	eb42 0202 	adc.w	r2, r2, r2
87800cea:	bf28      	it	cs
87800cec:	eba0 6081 	subcs.w	r0, r0, r1, lsl #26
87800cf0:	ebb0 6f41 	cmp.w	r0, r1, lsl #25
87800cf4:	bf00      	nop
87800cf6:	eb42 0202 	adc.w	r2, r2, r2
87800cfa:	bf28      	it	cs
87800cfc:	eba0 6041 	subcs.w	r0, r0, r1, lsl #25
87800d00:	ebb0 6f01 	cmp.w	r0, r1, lsl #24
87800d04:	bf00      	nop
87800d06:	eb42 0202 	adc.w	r2, r2, r2
87800d0a:	bf28      	it	cs
87800d0c:	eba0 6001 	subcs.w	r0, r0, r1, lsl #24
87800d10:	ebb0 5fc1 	cmp.w	r0, r1, lsl #23
87800d14:	bf00      	nop
87800d16:	eb42 0202 	adc.w	r2, r2, r2
87800d1a:	bf28      	it	cs
87800d1c:	eba0 50c1 	subcs.w	r0, r0, r1, lsl #23
87800d20:	ebb0 5f81 	cmp.w	r0, r1, lsl #22
87800d24:	bf00      	nop
87800d26:	eb42 0202 	adc.w	r2, r2, r2
87800d2a:	bf28      	it	cs
87800d2c:	eba0 5081 	subcs.w	r0, r0, r1, lsl #22
87800d30:	ebb0 5f41 	cmp.w	r0, r1, lsl #21
87800d34:	bf00      	nop
87800d36:	eb42 0202 	adc.w	r2, r2, r2
87800d3a:	bf28      	it	cs
87800d3c:	eba0 5041 	subcs.w	r0, r0, r1, lsl #21
87800d40:	ebb0 5f01 	cmp.w	r0, r1, lsl #20
87800d44:	bf00      	nop
87800d46:	eb42 0202 	adc.w	r2, r2, r2
87800d4a:	bf28      	it	cs
87800d4c:	eba0 5001 	subcs.w	r0, r0, r1, lsl #20
87800d50:	ebb0 4fc1 	cmp.w	r0, r1, lsl #19
87800d54:	bf00      	nop
87800d56:	eb42 0202 	adc.w	r2, r2, r2
87800d5a:	bf28      	it	cs
87800d5c:	eba0 40c1 	subcs.w	r0, r0, r1, lsl #19
87800d60:	ebb0 4f81 	cmp.w	r0, r1, lsl #18
87800d64:	bf00      	nop
87800d66:	eb42 0202 	adc.w	r2, r2, r2
87800d6a:	bf28      	it	cs
87800d6c:	eba0 4081 	subcs.w	r0, r0, r1, lsl #18
87800d70:	ebb0 4f41 	cmp.w	r0, r1, lsl #17
87800d74:	bf00      	nop
87800d76:	eb42 0202 	adc.w	r2, r2, r2
87800d7a:	bf28      	it	cs
87800d7c:	eba0 4041 	subcs.w	r0, r0, r1, lsl #17
87800d80:	ebb0 4f01 	cmp.w	r0, r1, lsl #16
87800d84:	bf00      	nop
87800d86:	eb42 0202 	adc.w	r2, r2, r2
87800d8a:	bf28      	it	cs
87800d8c:	eba0 4001 	subcs.w	r0, r0, r1, lsl #16
87800d90:	ebb0 3fc1 	cmp.w	r0, r1, lsl #15
87800d94:	bf00      	nop
87800d96:	eb42 0202 	adc.w	r2, r2, r2
87800d9a:	bf28      	it	cs
87800d9c:	eba0 30c1 	subcs.w	r0, r0, r1, lsl #15
87800da0:	ebb0 3f81 	cmp.w	r0, r1, lsl #14
87800da4:	bf00      	nop
87800da6:	eb42 0202 	adc.w	r2, r2, r2
87800daa:	bf28      	it	cs
87800dac:	eba0 3081 	subcs.w	r0, r0, r1, lsl #14
87800db0:	ebb0 3f41 	cmp.w	r0, r1, lsl #13
87800db4:	bf00      	nop
87800db6:	eb42 0202 	adc.w	r2, r2, r2
87800dba:	bf28      	it	cs
87800dbc:	eba0 3041 	subcs.w	r0, r0, r1, lsl #13
87800dc0:	ebb0 3f01 	cmp.w	r0, r1, lsl #12
87800dc4:	bf00      	nop
87800dc6:	eb42 0202 	adc.w	r2, r2, r2
87800dca:	bf28      	it	cs
87800dcc:	eba0 3001 	subcs.w	r0, r0, r1, lsl #12
87800dd0:	ebb0 2fc1 	cmp.w	r0, r1, lsl #11
87800dd4:	bf00      	nop
87800dd6:	eb42 0202 	adc.w	r2, r2, r2
87800dda:	bf28      	it	cs
87800ddc:	eba0 20c1 	subcs.w	r0, r0, r1, lsl #11
87800de0:	ebb0 2f81 	cmp.w	r0, r1, lsl #10
87800de4:	bf00      	nop
87800de6:	eb42 0202 	adc.w	r2, r2, r2
87800dea:	bf28      	it	cs
87800dec:	eba0 2081 	subcs.w	r0, r0, r1, lsl #10
87800df0:	ebb0 2f41 	cmp.w	r0, r1, lsl #9
87800df4:	bf00      	nop
87800df6:	eb42 0202 	adc.w	r2, r2, r2
87800dfa:	bf28      	it	cs
87800dfc:	eba0 2041 	subcs.w	r0, r0, r1, lsl #9
87800e00:	ebb0 2f01 	cmp.w	r0, r1, lsl #8
87800e04:	bf00      	nop
87800e06:	eb42 0202 	adc.w	r2, r2, r2
87800e0a:	bf28      	it	cs
87800e0c:	eba0 2001 	subcs.w	r0, r0, r1, lsl #8
87800e10:	ebb0 1fc1 	cmp.w	r0, r1, lsl #7
87800e14:	bf00      	nop
87800e16:	eb42 0202 	adc.w	r2, r2, r2
87800e1a:	bf28      	it	cs
87800e1c:	eba0 10c1 	subcs.w	r0, r0, r1, lsl #7
87800e20:	ebb0 1f81 	cmp.w	r0, r1, lsl #6
87800e24:	bf00      	nop
87800e26:	eb42 0202 	adc.w	r2, r2, r2
87800e2a:	bf28      	it	cs
87800e2c:	eba0 1081 	subcs.w	r0, r0, r1, lsl #6
87800e30:	ebb0 1f41 	cmp.w	r0, r1, lsl #5
87800e34:	bf00      	nop
87800e36:	eb42 0202 	adc.w	r2, r2, r2
87800e3a:	bf28      	it	cs
87800e3c:	eba0 1041 	subcs.w	r0, r0, r1, lsl #5
87800e40:	ebb0 1f01 	cmp.w	r0, r1, lsl #4
87800e44:	bf00      	nop
87800e46:	eb42 0202 	adc.w	r2, r2, r2
87800e4a:	bf28      	it	cs
87800e4c:	eba0 1001 	subcs.w	r0, r0, r1, lsl #4
87800e50:	ebb0 0fc1 	cmp.w	r0, r1, lsl #3
87800e54:	bf00      	nop
87800e56:	eb42 0202 	adc.w	r2, r2, r2
87800e5a:	bf28      	it	cs
87800e5c:	eba0 00c1 	subcs.w	r0, r0, r1, lsl #3
87800e60:	ebb0 0f81 	cmp.w	r0, r1, lsl #2
87800e64:	bf00      	nop
87800e66:	eb42 0202 	adc.w	r2, r2, r2
87800e6a:	bf28      	it	cs
87800e6c:	eba0 0081 	subcs.w	r0, r0, r1, lsl #2
87800e70:	ebb0 0f41 	cmp.w	r0, r1, lsl #1
87800e74:	bf00      	nop
87800e76:	eb42 0202 	adc.w	r2, r2, r2
87800e7a:	bf28      	it	cs
87800e7c:	eba0 0041 	subcs.w	r0, r0, r1, lsl #1
87800e80:	ebb0 0f01 	cmp.w	r0, r1
87800e84:	bf00      	nop
87800e86:	eb42 0202 	adc.w	r2, r2, r2
87800e8a:	bf28      	it	cs
87800e8c:	eba0 0001 	subcs.w	r0, r0, r1
87800e90:	4610      	mov	r0, r2
87800e92:	4770      	bx	lr
87800e94:	bf0c      	ite	eq
87800e96:	2001      	moveq	r0, #1
87800e98:	2000      	movne	r0, #0
87800e9a:	4770      	bx	lr
87800e9c:	fab1 f281 	clz	r2, r1
87800ea0:	f1c2 021f 	rsb	r2, r2, #31
87800ea4:	fa20 f002 	lsr.w	r0, r0, r2
87800ea8:	4770      	bx	lr
87800eaa:	b108      	cbz	r0, 87800eb0 <__udivsi3+0x258>
87800eac:	f04f 30ff 	mov.w	r0, #4294967295	@ 0xffffffff
87800eb0:	f000 b826 	b.w	87800f00 <__aeabi_idiv0>

87800eb4 <__aeabi_uidivmod>:
87800eb4:	2900      	cmp	r1, #0
87800eb6:	d0f8      	beq.n	87800eaa <__udivsi3+0x252>
87800eb8:	e92d 4003 	stmdb	sp!, {r0, r1, lr}
87800ebc:	f7ff fecc 	bl	87800c58 <__udivsi3>
87800ec0:	e8bd 4006 	ldmia.w	sp!, {r1, r2, lr}
87800ec4:	fb02 f300 	mul.w	r3, r2, r0
87800ec8:	eba1 0103 	sub.w	r1, r1, r3
87800ecc:	4770      	bx	lr
87800ece:	bf00      	nop

87800ed0 <__aeabi_uldivmod>:
87800ed0:	b953      	cbnz	r3, 87800ee8 <__aeabi_uldivmod+0x18>
87800ed2:	b94a      	cbnz	r2, 87800ee8 <__aeabi_uldivmod+0x18>
87800ed4:	2900      	cmp	r1, #0
87800ed6:	bf08      	it	eq
87800ed8:	2800      	cmpeq	r0, #0
87800eda:	bf1c      	itt	ne
87800edc:	f04f 31ff 	movne.w	r1, #4294967295	@ 0xffffffff
87800ee0:	f04f 30ff 	movne.w	r0, #4294967295	@ 0xffffffff
87800ee4:	f000 b80c 	b.w	87800f00 <__aeabi_idiv0>
87800ee8:	f1ad 0c08 	sub.w	ip, sp, #8
87800eec:	e96d ce04 	strd	ip, lr, [sp, #-16]!
87800ef0:	f000 f80c 	bl	87800f0c <__udivmoddi4>
87800ef4:	f8dd e004 	ldr.w	lr, [sp, #4]
87800ef8:	e9dd 2302 	ldrd	r2, r3, [sp, #8]
87800efc:	b004      	add	sp, #16
87800efe:	4770      	bx	lr

87800f00 <__aeabi_idiv0>:
87800f00:	b502      	push	{r1, lr}
87800f02:	f04f 0008 	mov.w	r0, #8
87800f06:	f7ff fea5 	bl	87800c54 <raise>
87800f0a:	bd02      	pop	{r1, pc}

87800f0c <__udivmoddi4>:
87800f0c:	e92d 43f0 	stmdb	sp!, {r4, r5, r6, r7, r8, r9, lr}
87800f10:	4290      	cmp	r0, r2
87800f12:	460d      	mov	r5, r1
87800f14:	eb75 0103 	sbcs.w	r1, r5, r3
87800f18:	4604      	mov	r4, r0
87800f1a:	bf38      	it	cc
87800f1c:	2000      	movcc	r0, #0
87800f1e:	9f07      	ldr	r7, [sp, #28]
87800f20:	bf38      	it	cc
87800f22:	4601      	movcc	r1, r0
87800f24:	d364      	bcc.n	87800ff0 <__udivmoddi4+0xe4>
87800f26:	fab3 f683 	clz	r6, r3
87800f2a:	2b00      	cmp	r3, #0
87800f2c:	d069      	beq.n	87801002 <__udivmoddi4+0xf6>
87800f2e:	fab5 f185 	clz	r1, r5
87800f32:	2d00      	cmp	r5, #0
87800f34:	d061      	beq.n	87800ffa <__udivmoddi4+0xee>
87800f36:	1a76      	subs	r6, r6, r1
87800f38:	f1a6 0c20 	sub.w	ip, r6, #32
87800f3c:	f1c6 0e20 	rsb	lr, r6, #32
87800f40:	40b3      	lsls	r3, r6
87800f42:	fa02 f10c 	lsl.w	r1, r2, ip
87800f46:	fa02 f806 	lsl.w	r8, r2, r6
87800f4a:	430b      	orrs	r3, r1
87800f4c:	fa22 f20e 	lsr.w	r2, r2, lr
87800f50:	4544      	cmp	r4, r8
87800f52:	ea43 0302 	orr.w	r3, r3, r2
87800f56:	eb75 0203 	sbcs.w	r2, r5, r3
87800f5a:	bf3c      	itt	cc
87800f5c:	2000      	movcc	r0, #0
87800f5e:	4601      	movcc	r1, r0
87800f60:	d30a      	bcc.n	87800f78 <__udivmoddi4+0x6c>
87800f62:	2001      	movs	r0, #1
87800f64:	ebb4 0408 	subs.w	r4, r4, r8
87800f68:	eb65 0503 	sbc.w	r5, r5, r3
87800f6c:	fa00 f10c 	lsl.w	r1, r0, ip
87800f70:	fa20 f20e 	lsr.w	r2, r0, lr
87800f74:	4311      	orrs	r1, r2
87800f76:	40b0      	lsls	r0, r6
87800f78:	b3d6      	cbz	r6, 87800ff0 <__udivmoddi4+0xe4>
87800f7a:	ea4f 0258 	mov.w	r2, r8, lsr #1
87800f7e:	46b0      	mov	r8, r6
87800f80:	ea42 72c3 	orr.w	r2, r2, r3, lsl #31
87800f84:	085b      	lsrs	r3, r3, #1
87800f86:	e00a      	b.n	87800f9e <__udivmoddi4+0x92>
87800f88:	1aa4      	subs	r4, r4, r2
87800f8a:	eb65 0503 	sbc.w	r5, r5, r3
87800f8e:	1924      	adds	r4, r4, r4
87800f90:	416d      	adcs	r5, r5
87800f92:	3401      	adds	r4, #1
87800f94:	f145 0500 	adc.w	r5, r5, #0
87800f98:	f1b8 0801 	subs.w	r8, r8, #1
87800f9c:	d008      	beq.n	87800fb0 <__udivmoddi4+0xa4>
87800f9e:	4294      	cmp	r4, r2
87800fa0:	eb75 0903 	sbcs.w	r9, r5, r3
87800fa4:	d2f0      	bcs.n	87800f88 <__udivmoddi4+0x7c>
87800fa6:	1924      	adds	r4, r4, r4
87800fa8:	416d      	adcs	r5, r5
87800faa:	f1b8 0801 	subs.w	r8, r8, #1
87800fae:	d1f6      	bne.n	87800f9e <__udivmoddi4+0x92>
87800fb0:	1900      	adds	r0, r0, r4
87800fb2:	fa05 fe0e 	lsl.w	lr, r5, lr
87800fb6:	fa24 f406 	lsr.w	r4, r4, r6
87800fba:	eb41 0105 	adc.w	r1, r1, r5
87800fbe:	fa25 fc0c 	lsr.w	ip, r5, ip
87800fc2:	ea44 040e 	orr.w	r4, r4, lr
87800fc6:	ea44 040c 	orr.w	r4, r4, ip
87800fca:	40f5      	lsrs	r5, r6
87800fcc:	f1a6 0c20 	sub.w	ip, r6, #32
87800fd0:	f1c6 0320 	rsb	r3, r6, #32
87800fd4:	fa05 f206 	lsl.w	r2, r5, r6
87800fd8:	fa04 fc0c 	lsl.w	ip, r4, ip
87800fdc:	fa24 f303 	lsr.w	r3, r4, r3
87800fe0:	ea42 020c 	orr.w	r2, r2, ip
87800fe4:	431a      	orrs	r2, r3
87800fe6:	fa04 f306 	lsl.w	r3, r4, r6
87800fea:	1ac0      	subs	r0, r0, r3
87800fec:	eb61 0102 	sbc.w	r1, r1, r2
87800ff0:	b10f      	cbz	r7, 87800ff6 <__udivmoddi4+0xea>
87800ff2:	e9c7 4500 	strd	r4, r5, [r7]
87800ff6:	e8bd 83f0 	ldmia.w	sp!, {r4, r5, r6, r7, r8, r9, pc}
87800ffa:	fab4 f184 	clz	r1, r4
87800ffe:	3120      	adds	r1, #32
87801000:	e799      	b.n	87800f36 <__udivmoddi4+0x2a>
87801002:	fab2 f682 	clz	r6, r2
87801006:	fab5 f185 	clz	r1, r5
8780100a:	3620      	adds	r6, #32
8780100c:	2d00      	cmp	r5, #0
8780100e:	d192      	bne.n	87800f36 <__udivmoddi4+0x2a>
87801010:	e7f3      	b.n	87800ffa <__udivmoddi4+0xee>
87801012:	bf00      	nop
87801014:	0000      	movs	r0, r0
	...

87801018 <__main_from_arm>:
87801018:	e51ff004 	ldr	pc, [pc, #-4]	@ 8780101c <__main_from_arm+0x4>
8780101c:	87801021 	strhi	r1, [r0, r1, lsr #32]

Disassembly of section .text.startup:

87801020 <main>:
87801020:	e92d 41f0 	stmdb	sp!, {r4, r5, r6, r7, r8, lr}
87801024:	f241 0898 	movw	r8, #4248	@ 0x1098
87801028:	f2c8 7880 	movt	r8, #34688	@ 0x8780
8780102c:	f241 07b0 	movw	r7, #4272	@ 0x10b0
87801030:	f2c8 7780 	movt	r7, #34688	@ 0x8780
87801034:	f241 06b4 	movw	r6, #4276	@ 0x10b4
87801038:	f2c8 7680 	movt	r6, #34688	@ 0x8780
8780103c:	2500      	movs	r5, #0
8780103e:	f7ff faed 	bl	8780061c <int_init>
87801042:	f7ff f89b 	bl	8780017c <imx6u_clkinit>
87801046:	f7ff f91f 	bl	87800288 <delay_init>
8780104a:	f7ff f887 	bl	8780015c <clk_enable>
8780104e:	f7ff f8ef 	bl	87800230 <led_init>
87801052:	f7ff f989 	bl	87800368 <beep_init>
87801056:	f7ff fc5f 	bl	87800918 <uart_init>
8780105a:	4640      	mov	r0, r8
8780105c:	f085 0501 	eor.w	r5, r5, #1
87801060:	f7ff fdde 	bl	87800c20 <puts>
87801064:	f7ff fdec 	bl	87800c40 <getc>
87801068:	4604      	mov	r4, r0
8780106a:	f7ff fdcf 	bl	87800c0c <putc>
8780106e:	4638      	mov	r0, r7
87801070:	f7ff fdd6 	bl	87800c20 <puts>
87801074:	4630      	mov	r0, r6
87801076:	f7ff fdd3 	bl	87800c20 <puts>
8780107a:	4620      	mov	r0, r4
8780107c:	f7ff fdc6 	bl	87800c0c <putc>
87801080:	f241 00cc 	movw	r0, #4300	@ 0x10cc
87801084:	f2c8 7080 	movt	r0, #34688	@ 0x8780
87801088:	f7ff fdca 	bl	87800c20 <puts>
8780108c:	4629      	mov	r1, r5
8780108e:	2000      	movs	r0, #0
87801090:	f7ff f8e4 	bl	8780025c <led_switch>
87801094:	e7e1      	b.n	8780105a <main+0x3a>
87801096:	bf00      	nop

Disassembly of section .rodata:

87801098 <CSWTCH.9-0x3c>:
87801098:	e8b7afe8 	ldm	r7!, {r3, r5, r6, r7, r8, r9, sl, fp, sp, pc}
8780109c:	85e593be 	strbhi	r9, [r5, #958]!	@ 0x3be
878010a0:	b8e431a5 	stmialt	r4!, {r0, r2, r5, r7, r8, ip, sp}^
878010a4:	97ade5aa 	strls	lr, [sp, sl, lsr #11]!
878010a8:	3aa6ace7 	bcc	861ac44c <shift+0x861ac44c>
878010ac:	00000000 	andeq	r0, r0, r0
878010b0:	00000a0d 	andeq	r0, r0, sp, lsl #20
878010b4:	e8a882e6 	stmia	r8!, {r1, r2, r5, r6, r7, r9, pc}
878010b8:	85e593be 	strbhi	r9, [r5, #958]!	@ 0x3be
878010bc:	849ae7a5 	ldrhi	lr, [sl], #1957	@ 0x7a5
878010c0:	e797ade5 	ldr	sl, [r7, r5, ror #27]
878010c4:	b8e4a6ac 	stmialt	r4!, {r2, r3, r5, r7, r9, sl, sp, pc}^
878010c8:	00003aba 			@ <UNDEFINED> instruction: 0x00003aba
878010cc:	0a0d0a0d 	beq	87b43908 <__bss_end+0x342306>
878010d0:	00000000 	andeq	r0, r0, r0

878010d4 <CSWTCH.9>:
878010d4:	00000004 	andeq	r0, r0, r4
878010d8:	00000003 	andeq	r0, r0, r3
878010dc:	00000002 	andeq	r0, r0, r2
878010e0:	00000001 	andeq	r0, r0, r1
878010e4:	00000000 	andeq	r0, r0, r0
878010e8:	00000006 	andeq	r0, r0, r6

Disassembly of section .ARM.exidx:

878010ec <.ARM.exidx>:
878010ec:	7ffffe20 	svcvc	0x00fffe20
878010f0:	00000001 	andeq	r0, r0, r1

Disassembly of section .data:

878010f4 <release.0>:
878010f4:	Address 0x878010f4 is out of bounds.


Disassembly of section .comment:

00000000 <.comment>:
   0:	3a434347 	bcc	10d0d24 <shift+0x10d0d24>
   4:	72412820 	subvc	r2, r1, #32, 16	@ 0x200000
   8:	4e47206d 	cdpmi	0, 4, cr2, cr7, cr13, {3}
   c:	6f542055 	svcvs	0x00542055
  10:	68636c6f 	stmdavs	r3!, {r0, r1, r2, r3, r5, r6, sl, fp, sp, lr}^
  14:	206e6961 	rsbcs	r6, lr, r1, ror #18
  18:	322e3331 	eorcc	r3, lr, #-1006632960	@ 0xc4000000
  1c:	6c65722e 	sfmvs	f7, 2, [r5], #-184	@ 0xffffff48
  20:	42282031 	eormi	r2, r8, #49	@ 0x31
  24:	646c6975 	strbtvs	r6, [ip], #-2421	@ 0xfffff68b
  28:	6d726120 	ldfvse	f6, [r2, #-128]!	@ 0xffffff80
  2c:	2e33312d 	rsfcssp	f3, f3, #5.0
  30:	20292937 	eorcs	r2, r9, r7, lsr r9
  34:	322e3331 	eorcc	r3, lr, #-1006632960	@ 0xc4000000
  38:	3220312e 	eorcc	r3, r0, #-2147483637	@ 0x8000000b
  3c:	31333230 	teqcc	r3, r0, lsr r2
  40:	00393030 	eorseq	r3, r9, r0, lsr r0

Disassembly of section .ARM.attributes:

00000000 <.ARM.attributes>:
   0:	00003041 	andeq	r3, r0, r1, asr #32
   4:	61656100 	cmnvs	r5, r0, lsl #2
   8:	01006962 	tsteq	r0, r2, ror #18
   c:	00000026 	andeq	r0, r0, r6, lsr #32
  10:	412d3705 			@ <UNDEFINED> instruction: 0x412d3705
  14:	070a0600 	streq	r0, [sl, -r0, lsl #12]
  18:	09010841 	stmdbeq	r1, {r0, r6, fp}
  1c:	0c030a02 			@ <UNDEFINED> instruction: 0x0c030a02
  20:	14041201 	strne	r1, [r4], #-513	@ 0xfffffdff
  24:	17011501 	strne	r1, [r1, -r1, lsl #10]
  28:	1a011803 	bne	4603c <shift+0x4603c>
  2c:	22011c02 	andcs	r1, r1, #512	@ 0x200
  30:	Address 0x30 is out of bounds.


Disassembly of section .debug_frame:

00000000 <.debug_frame>:
   0:	0000000c 	andeq	r0, r0, ip
   4:	ffffffff 			@ <UNDEFINED> instruction: 0xffffffff
   8:	7c010001 	stcvc	0, cr0, [r1], {1}
   c:	000d0c0e 	andeq	r0, sp, lr, lsl #24
  10:	0000000c 	andeq	r0, r0, ip
  14:	00000000 	andeq	r0, r0, r0
  18:	87800c59 			@ <UNDEFINED> instruction: 0x87800c59
  1c:	0000025c 	andeq	r0, r0, ip, asr r2
  20:	0000000c 	andeq	r0, r0, ip
  24:	ffffffff 			@ <UNDEFINED> instruction: 0xffffffff
  28:	7c020001 	stcvc	0, cr0, [r2], {1}
  2c:	000d0c0e 	andeq	r0, sp, lr, lsl #24
  30:	00000018 	andeq	r0, r0, r8, lsl r0
  34:	00000020 	andeq	r0, r0, r0, lsr #32
  38:	87800ed0 			@ <UNDEFINED> instruction: 0x87800ed0
  3c:	00000030 	andeq	r0, r0, r0, lsr r0
  40:	8e100e50 	mrchi	14, 0, r0, cr0, cr0, {2}
  44:	0ece4703 	cdpeq	7, 12, cr4, cr14, cr3, {0}
  48:	00000010 	andeq	r0, r0, r0, lsl r0
  4c:	0000000c 	andeq	r0, r0, ip
  50:	ffffffff 			@ <UNDEFINED> instruction: 0xffffffff
  54:	7c010001 	stcvc	0, cr0, [r1], {1}
  58:	000d0c0e 	andeq	r0, sp, lr, lsl #24
  5c:	00000014 	andeq	r0, r0, r4, lsl r0
  60:	0000004c 	andeq	r0, r0, ip, asr #32
  64:	87800f01 	strhi	r0, [r0, r1, lsl #30]
  68:	0000000c 	andeq	r0, r0, ip
  6c:	0e018e42 	cdpeq	14, 0, cr8, cr1, cr2, {2}
  70:	00000008 	andeq	r0, r0, r8
  74:	0000000c 	andeq	r0, r0, ip
  78:	ffffffff 			@ <UNDEFINED> instruction: 0xffffffff
  7c:	7c020001 	stcvc	0, cr0, [r2], {1}
  80:	000d0c0e 	andeq	r0, sp, lr, lsl #24
  84:	00000020 	andeq	r0, r0, r0, lsr #32
  88:	00000074 	andeq	r0, r0, r4, ror r0
  8c:	87800f0c 	strhi	r0, [r0, ip, lsl #30]
  90:	00000106 	andeq	r0, r0, r6, lsl #2
  94:	841c0e42 	ldrhi	r0, [ip], #-3650	@ 0xfffff1be
  98:	86068507 	strhi	r8, [r6], -r7, lsl #10
  9c:	88048705 	stmdahi	r4, {r0, r2, r8, r9, sl, pc}
  a0:	8e028903 	vmlahi.f16	s16, s4, s6	@ <UNPREDICTABLE>
  a4:	00000001 	andeq	r0, r0, r1

Disassembly of section .debug_line:

00000000 <.debug_line>:
   0:	00000065 	andeq	r0, r0, r5, rrx
   4:	00040005 	andeq	r0, r4, r5
   8:	0000002e 	andeq	r0, r0, lr, lsr #32
   c:	fb010102 	blx	4041e <shift+0x4041e>
  10:	01000d0e 	tsteq	r0, lr, lsl #26
  14:	00010101 	andeq	r0, r1, r1, lsl #2
  18:	00010000 	andeq	r0, r1, r0
  1c:	01010100 	mrseq	r0, (UNDEF: 17)
  20:	0000021f 	andeq	r0, r0, pc, lsl r2
  24:	00750000 	rsbseq	r0, r5, r0
  28:	01020000 	mrseq	r0, (UNDEF: 2)
  2c:	020f021f 	andeq	r0, pc, #-268435455	@ 0xf0000001
  30:	000000bc 	strheq	r0, [r0], -ip
  34:	0000bc01 	andeq	fp, r0, r1, lsl #24
  38:	05000100 	streq	r0, [r0, #-256]	@ 0xffffff00
  3c:	800c5802 	andhi	r5, ip, r2, lsl #16
  40:	08cf0387 	stmiaeq	pc, {r0, r1, r2, r7, r8, r9}^	@ <UNPREDICTABLE>
  44:	21212101 			@ <UNDEFINED> instruction: 0x21212101
  48:	212f212f 			@ <UNDEFINED> instruction: 0x212f212f
  4c:	02910230 	addseq	r0, r1, #48, 4
  50:	21222114 			@ <UNDEFINED> instruction: 0x21222114
  54:	4c222121 	stfmis	f2, [r2], #-132	@ 0xffffff7c
  58:	1f03242f 	svcne	0x0003242f
  5c:	2f212158 	svccs	0x00212158
  60:	2f2f2f2f 	svccs	0x002f2f2f
  64:	01000102 	tsteq	r0, r2, lsl #2
  68:	00004a01 	andeq	r4, r0, r1, lsl #20
  6c:	04000500 	streq	r0, [r0], #-1280	@ 0xfffffb00
  70:	00002e00 	andeq	r2, r0, r0, lsl #28
  74:	01010200 	mrseq	r0, R9_usr
  78:	000d0efb 	strdeq	r0, [sp], -fp
  7c:	01010101 	tsteq	r1, r1, lsl #2
  80:	01000000 	mrseq	r0, (UNDEF: 0)
  84:	01010000 	mrseq	r0, (UNDEF: 1)
  88:	00021f01 	andeq	r1, r2, r1, lsl #30
  8c:	75000000 	strvc	r0, [r0, #-0]
  90:	02000000 	andeq	r0, r0, #0
  94:	0f021f01 	svceq	0x00021f01
  98:	0000c802 	andeq	ip, r0, r2, lsl #16
  9c:	00c80100 	sbceq	r0, r8, r0, lsl #2
  a0:	00010000 	andeq	r0, r1, r0
  a4:	0ed00205 	cdpeq	2, 13, cr0, cr0, cr5, {0}
  a8:	fd038780 	stc2	7, cr8, [r3, #-512]	@ 0xfffffe00
  ac:	4cbc0101 	ldfmis	f0, [ip], #4
  b0:	0102592f 	tsteq	r2, pc, lsr #18
  b4:	4b010100 	blmi	404bc <shift+0x404bc>
  b8:	05000000 	streq	r0, [r0, #-0]
  bc:	2e000400 	cfcpyscs	mvf0, mvf0
  c0:	02000000 	andeq	r0, r0, #0
  c4:	0efb0101 	cdpeq	1, 15, cr0, cr11, cr1, {0}
  c8:	0101000d 	tsteq	r1, sp
  cc:	00000101 	andeq	r0, r0, r1, lsl #2
  d0:	00000100 	andeq	r0, r0, r0, lsl #2
  d4:	1f010101 	svcne	0x00010101
  d8:	00000002 	andeq	r0, r0, r2
  dc:	00007500 	andeq	r7, r0, r0, lsl #10
  e0:	1f010200 	svcne	0x00010200
  e4:	bc020f02 	stclt	15, cr0, [r2], {2}
  e8:	01000000 	mrseq	r0, (UNDEF: 0)
  ec:	000000bc 	strheq	r0, [r0], -ip
  f0:	02050001 	andeq	r0, r5, #1
  f4:	87800f00 	strhi	r0, [r0, r0, lsl #30]
  f8:	010bd003 	tsteq	fp, r3
  fc:	2f200903 	svccs	0x00200903
 100:	0001022f 	andeq	r0, r1, pc, lsr #4
 104:	01a80101 			@ <UNDEFINED> instruction: 0x01a80101
 108:	00030000 	andeq	r0, r3, r0
 10c:	00000082 	andeq	r0, r0, r2, lsl #1
 110:	0efb0102 	cdpeq	1, 15, cr0, cr11, cr2, {0}
 114:	0101000d 	tsteq	r1, sp
 118:	00000101 	andeq	r0, r0, r1, lsl #2
 11c:	00000100 	andeq	r0, r0, r0, lsl #2
 120:	61642f01 	cmnvs	r4, r1, lsl #30
 124:	6a2f6174 	bvs	bd86fc <shift+0xbd86fc>
 128:	696b6e65 	stmdbvs	fp!, {r0, r2, r5, r6, r9, sl, fp, sp, lr}^
 12c:	772f736e 	strvc	r7, [pc, -lr, ror #6]!
 130:	736b726f 	cmnvc	fp, #-268435450	@ 0xf0000006
 134:	65636170 	strbvs	r6, [r3, #-368]!	@ 0xfffffe90
 138:	554e472f 	strbpl	r4, [lr, #-1839]	@ 0xfffff8d1
 13c:	6f6f742d 	svcvs	0x006f742d
 140:	6168636c 	cmnvs	r8, ip, ror #6
 144:	612f6e69 			@ <UNDEFINED> instruction: 0x612f6e69
 148:	312d6d72 			@ <UNDEFINED> instruction: 0x312d6d72
 14c:	72732f33 	rsbsvc	r2, r3, #51, 30	@ 0xcc
 150:	63672f63 	cmnvs	r7, #396	@ 0x18c
 154:	696c2f63 	stmdbvs	ip!, {r0, r1, r5, r6, r8, r9, sl, fp, sp}^
 158:	63636762 	cmnvs	r3, #25690112	@ 0x1880000
 15c:	2f2e2e00 	svccs	0x002e2e00
 160:	2e2f2e2e 	cdpcs	14, 2, cr2, cr15, cr14, {1}
 164:	6363672f 	cmnvs	r3, #12320768	@ 0xbc0000
 168:	696c0000 	stmdbvs	ip!, {}^	@ <UNPREDICTABLE>
 16c:	63636762 	cmnvs	r3, #25690112	@ 0x1880000
 170:	00632e32 	rsbeq	r2, r3, r2, lsr lr
 174:	61000001 	tstvs	r0, r1
 178:	692d6d72 	pushvs	{r1, r4, r5, r6, r8, sl, fp, sp, lr}
 17c:	682e6173 	stmdavs	lr!, {r0, r1, r4, r5, r6, r8, sp, lr}
 180:	00000200 	andeq	r0, r0, r0, lsl #4
 184:	6762696c 	strbvs	r6, [r2, -ip, ror #18]!
 188:	2e326363 	cdpcs	3, 3, cr6, cr2, cr3, {3}
 18c:	00010068 	andeq	r0, r1, r8, rrx
 190:	01050000 	mrseq	r0, (UNDEF: 5)
 194:	0c020500 	cfstr32eq	mvfx0, [r2], {-0}
 198:	0387800f 	orreq	r8, r7, #15
 19c:	0501079f 	streq	r0, [r1, #-1951]	@ 0xfffff861
 1a0:	01051303 	tsteq	r5, r3, lsl #6
 1a4:	06051106 	streq	r1, [r5], -r6, lsl #2
 1a8:	052e0c03 	streq	r0, [lr, #-3075]!	@ 0xfffff3fd
 1ac:	20740301 	rsbscs	r0, r4, r1, lsl #6
 1b0:	22060305 	andcs	r0, r6, #335544320	@ 0x14000000
 1b4:	05010a03 	streq	r0, [r1, #-2563]	@ 0xfffff5fd
 1b8:	05010606 	streq	r0, [r1, #-1542]	@ 0xfffff9fa
 1bc:	2e740301 	cdpcs	3, 7, cr0, cr4, cr1, {0}
 1c0:	05210b05 	streq	r0, [r1, #-2821]!	@ 0xfffff4fb
 1c4:	0b052d01 	bleq	14b5d0 <shift+0x14b5d0>
 1c8:	03060521 	movweq	r0, #25889	@ 0x6521
 1cc:	07052e0b 	streq	r2, [r5, -fp, lsl #28]
 1d0:	0d052206 	sfmeq	f2, 4, [r5, #-24]	@ 0xffffffe8
 1d4:	07050106 	streq	r0, [r5, -r6, lsl #2]
 1d8:	0d054b06 	vstreq	d4, [r5, #-24]	@ 0xffffffe8
 1dc:	07050106 	streq	r0, [r5, -r6, lsl #2]
 1e0:	09054c06 	stmdbeq	r5, {r1, r2, sl, fp, lr}
 1e4:	07050106 	streq	r0, [r5, -r6, lsl #2]
 1e8:	09052106 	stmdbeq	r5, {r1, r2, r8, sp}
 1ec:	2e580106 	rdfcse	f0, f0, f6
 1f0:	055f0a05 	ldrbeq	r0, [pc, #-2565]	@ fffff7f3 <__bss_end+0x787fe1f1>
 1f4:	20790309 	rsbscs	r0, r9, r9, lsl #6
 1f8:	35060705 	strcc	r0, [r6, #-1797]	@ 0xfffff8fb
 1fc:	01060a05 	tsteq	r6, r5, lsl #20
 200:	68030b05 	stmdavs	r3, {r0, r2, r8, r9, fp}
 204:	030a052e 	movweq	r0, #42286	@ 0xa52e
 208:	04053c18 	streq	r3, [r5], #-3096	@ 0xfffff3e8
 20c:	06052206 	streq	r2, [r5], -r6, lsl #4
 210:	2e1f1306 	cdpcs	3, 1, cr1, cr15, cr6, {0}
 214:	2f060405 	svccs	0x00060405
 218:	01060605 	tsteq	r6, r5, lsl #12
 21c:	69060705 	stmdbvs	r6, {r0, r2, r8, r9, sl}
 220:	01060a05 	tsteq	r6, r5, lsl #20
 224:	22060405 	andcs	r0, r6, #83886080	@ 0x5000000
 228:	01060605 	tsteq	r6, r5, lsl #12
 22c:	04051c32 	streq	r1, [r5], #-3122	@ 0xfffff3ce
 230:	01064006 	tsteq	r6, r6
 234:	20240b05 	eorcs	r0, r4, r5, lsl #22
 238:	052e1005 	streq	r1, [lr, #-5]!
 23c:	08052e05 	stmdaeq	r5, {r0, r2, r9, sl, fp, sp}
 240:	11053f06 	tstne	r5, r6, lsl #30
 244:	052e0613 	streq	r0, [lr, #-1555]!	@ 0xfffff9ed
 248:	79030604 	stmdbvc	r3, {r2, r9, sl}
 24c:	14080520 	strne	r0, [r8], #-1312	@ 0xfffffae0
 250:	14130305 	ldrne	r0, [r3], #-773	@ 0xfffffcfb
 254:	0f060b05 	svceq	0x00060b05
 258:	204d0505 	subcs	r0, sp, r5, lsl #10
 25c:	21060805 	tstcs	r6, r5, lsl #16
 260:	06131105 	ldreq	r1, [r3], -r5, lsl #2
 264:	0604052e 	streq	r0, [r4], -lr, lsr #10
 268:	06060524 	streq	r0, [r6], -r4, lsr #10
 26c:	05492101 	strbeq	r2, [r9, #-257]	@ 0xfffffeff
 270:	052f0604 	streq	r0, [pc, #-1540]!	@ fffffc74 <__bss_end+0x787fe672>
 274:	05010606 	streq	r0, [r1, #-1542]	@ 0xfffff9fa
 278:	05750604 	ldrbeq	r0, [r5, #-1540]!	@ 0xfffff9fc
 27c:	4a01060f 	bmi	41ac0 <shift+0x41ac0>
 280:	9006052e 	andls	r0, r6, lr, lsr #10
 284:	06030520 	streq	r0, [r3], -r0, lsr #10
 288:	06060532 			@ <UNDEFINED> instruction: 0x06060532
 28c:	06050501 	streq	r0, [r5], -r1, lsl #10
 290:	06090521 	streq	r0, [r9], -r1, lsr #10
 294:	06030501 	streq	r0, [r3], -r1, lsl #10
 298:	0601052f 	streq	r0, [r1], -pc, lsr #10
 29c:	030d0513 	movweq	r0, #54547	@ 0xd513
 2a0:	2f492e55 	svccs	0x00492e55
 2a4:	0607052d 	streq	r0, [r7], -sp, lsr #10
 2a8:	060d0521 	streq	r0, [sp], -r1, lsr #10
 2ac:	00030201 	andeq	r0, r3, r1, lsl #4
 2b0:	Address 0x2b0 is out of bounds.


Disassembly of section .debug_line_str:

00000000 <.debug_line_str>:
   0:	7461642f 	strbtvc	r6, [r1], #-1071	@ 0xfffffbd1
   4:	656a2f61 	strbvs	r2, [sl, #-3937]!	@ 0xfffff09f
   8:	6e696b6e 	vnmulvs.f64	d22, d9, d30
   c:	6f772f73 	svcvs	0x00772f73
  10:	70736b72 	rsbsvc	r6, r3, r2, ror fp
  14:	2f656361 	svccs	0x00656361
  18:	2d554e47 	ldclcs	14, cr4, [r5, #-284]	@ 0xfffffee4
  1c:	6c6f6f74 	stclvs	15, cr6, [pc], #-464	@ fffffe54 <__bss_end+0x787fe852>
  20:	69616863 	stmdbvs	r1!, {r0, r1, r5, r6, fp, sp, lr}^
  24:	72612f6e 	rsbvc	r2, r1, #440	@ 0x1b8
  28:	33312d6d 	teqcc	r1, #6976	@ 0x1b40
  2c:	6975622f 	ldmdbvs	r5!, {r0, r1, r2, r3, r5, r9, sp, lr}^
  30:	612d646c 			@ <UNDEFINED> instruction: 0x612d646c
  34:	6e2d6d72 	mcrvs	13, 1, r6, cr13, cr2, {3}
  38:	2d656e6f 	stclcs	14, cr6, [r5, #-444]!	@ 0xfffffe44
  3c:	756e696c 	strbvc	r6, [lr, #-2412]!	@ 0xfffff694
  40:	6e672d78 	mcrvs	13, 3, r2, cr7, cr8, {3}
  44:	62616575 	rsbvs	r6, r1, #490733568	@ 0x1d400000
  48:	2f666869 	svccs	0x00666869
  4c:	2f6a626f 	svccs	0x006a626f
  50:	33636367 	cmncc	r3, #-1677721599	@ 0x9c000001
  54:	6d72612f 	ldfvse	f6, [r2, #-188]!	@ 0xffffff44
  58:	6e6f6e2d 	cdpvs	14, 6, cr6, cr15, cr13, {1}
  5c:	696c2d65 	stmdbvs	ip!, {r0, r2, r5, r6, r8, sl, fp, sp}^
  60:	2d78756e 	cfldr64cs	mvdx7, [r8, #-440]!	@ 0xfffffe48
  64:	65756e67 	ldrbvs	r6, [r5, #-3687]!	@ 0xfffff199
  68:	68696261 	stmdavs	r9!, {r0, r5, r6, r9, sp, lr}^
  6c:	696c2f66 	stmdbvs	ip!, {r1, r2, r5, r6, r8, r9, sl, fp, sp}^
  70:	63636762 	cmnvs	r3, #25690112	@ 0x1880000
  74:	61642f00 	cmnvs	r4, r0, lsl #30
  78:	6a2f6174 	bvs	bd8650 <shift+0xbd8650>
  7c:	696b6e65 	stmdbvs	fp!, {r0, r2, r5, r6, r9, sl, fp, sp, lr}^
  80:	772f736e 	strvc	r7, [pc, -lr, ror #6]!
  84:	736b726f 	cmnvc	fp, #-268435450	@ 0xf0000006
  88:	65636170 	strbvs	r6, [r3, #-368]!	@ 0xfffffe90
  8c:	554e472f 	strbpl	r4, [lr, #-1839]	@ 0xfffff8d1
  90:	6f6f742d 	svcvs	0x006f742d
  94:	6168636c 	cmnvs	r8, ip, ror #6
  98:	612f6e69 			@ <UNDEFINED> instruction: 0x612f6e69
  9c:	312d6d72 			@ <UNDEFINED> instruction: 0x312d6d72
  a0:	72732f33 	rsbsvc	r2, r3, #51, 30	@ 0xcc
  a4:	63672f63 	cmnvs	r7, #396	@ 0x18c
  a8:	696c2f63 	stmdbvs	ip!, {r0, r1, r5, r6, r8, r9, sl, fp, sp}^
  ac:	63636762 	cmnvs	r3, #25690112	@ 0x1880000
  b0:	6e6f632f 	cdpvs	3, 6, cr6, cr15, cr15, {1}
  b4:	2f676966 	svccs	0x00676966
  b8:	006d7261 	rsbeq	r7, sp, r1, ror #4
  bc:	3162696c 	cmncc	r2, ip, ror #18
  c0:	636e7566 	cmnvs	lr, #427819008	@ 0x19800000
  c4:	00532e73 	subseq	r2, r3, r3, ror lr
  c8:	62617062 	rsbvs	r7, r1, #98	@ 0x62
  cc:	00532e69 	subseq	r2, r3, r9, ror #28

Disassembly of section .debug_info:

00000000 <.debug_info>:
   0:	0000003a 	andeq	r0, r0, sl, lsr r0
   4:	04010005 	streq	r0, [r1], #-5
   8:	00000000 	andeq	r0, r0, r0
   c:	00000001 	andeq	r0, r0, r1
  10:	800c5800 	andhi	r5, ip, r0, lsl #16
  14:	0004f687 	andeq	pc, r4, r7, lsl #13
  18:	53000000 	movwpl	r0, #0
  1c:	c8000000 	stmdagt	r0, {}	@ <UNPREDICTABLE>
  20:	01000000 	mrseq	r0, (UNDEF: 0)
  24:	00d60280 	sbcseq	r0, r6, r0, lsl #5
  28:	593c0000 	ldmdbpl	ip!, {}	@ <UNPREDICTABLE>
  2c:	dc87800c 	stcle	0, cr8, [r7], {12}
  30:	00e00204 	rsceq	r0, r0, r4, lsl #4
  34:	b53c0000 	ldrlt	r0, [ip, #-0]!
  38:	1a87800e 	bne	fe1e0078 <__bss_end+0x769dea76>
  3c:	00200003 	eoreq	r0, r0, r3
  40:	00050000 	andeq	r0, r5, r0
  44:	00280401 	eoreq	r0, r8, r1, lsl #8
  48:	69010000 	stmdbvs	r1, {}	@ <UNPREDICTABLE>
  4c:	d0000000 	andle	r0, r0, r0
  50:	3087800e 	addcc	r8, r7, lr
  54:	000000f1 	strdeq	r0, [r0], -r1
  58:	00000053 	andeq	r0, r0, r3, asr r0
  5c:	000000c8 	andeq	r0, r0, r8, asr #1
  60:	00388001 	eorseq	r8, r8, r1
  64:	00050000 	andeq	r0, r5, r0
  68:	003c0401 	eorseq	r0, ip, r1, lsl #8
  6c:	b7010000 	strlt	r0, [r1, -r0]
  70:	00000000 	andeq	r0, r0, r0
  74:	0c87800f 	stceq	0, cr8, [r7], {15}
  78:	00000000 	andeq	r0, r0, r0
  7c:	00000053 	andeq	r0, r0, r3, asr r0
  80:	000000c8 	andeq	r0, r0, r8, asr #1
  84:	40028001 	andmi	r8, r2, r1
  88:	3a000001 	bcc	94 <shift+0x94>
  8c:	87800f01 	strhi	r0, [r0, r1, lsl #30]
  90:	014e020c 	cmpeq	lr, ip, lsl #4
  94:	013a0000 	teqeq	sl, r0
  98:	0c87800f 	stceq	0, cr8, [r7], {15}
  9c:	04000003 	streq	r0, [r0], #-3
  a0:	00050000 	andeq	r0, r5, r0
  a4:	00620401 	rsbeq	r0, r2, r1, lsl #8
  a8:	09080000 	stmdbeq	r8, {}	@ <UNPREDICTABLE>
  ac:	1d000004 	stcne	0, cr0, [r0, #-16]
  b0:	0000016c 	andeq	r0, r0, ip, ror #2
  b4:	00000053 	andeq	r0, r0, r3, asr r0
  b8:	87800f0c 	strhi	r0, [r0, ip, lsl #30]
  bc:	00000106 	andeq	r0, r0, r6, lsl #2
  c0:	00000106 	andeq	r0, r0, r6, lsl #2
  c4:	ce070802 	cdpgt	8, 0, cr0, cr7, cr2, {0}
  c8:	09000003 	stmdbeq	r0, {r0, r1}
  cc:	6e690504 	cdpvs	5, 6, cr0, cr9, cr4, {0}
  d0:	04020074 	streq	r0, [r2], #-116	@ 0xffffff8c
  d4:	0003d807 	andeq	sp, r3, r7, lsl #16
  d8:	05080200 	streq	r0, [r8, #-512]	@ 0xfffffe00
  dc:	000002d2 	ldrdeq	r0, [r0], -r2
  e0:	b7040802 	strlt	r0, [r4, -r2, lsl #16]
  e4:	02000002 	andeq	r0, r0, #2
  e8:	039c0801 	orrseq	r0, ip, #65536	@ 0x10000
  ec:	02020000 	andeq	r0, r2, #0
  f0:	0004da07 	andeq	sp, r4, r7, lsl #20
  f4:	07040200 	streq	r0, [r4, -r0, lsl #4]
  f8:	000003d3 	ldrdeq	r0, [r0], -r3
  fc:	9e060102 	adflss	f0, f6, f2
 100:	02000003 	andeq	r0, r0, #3
 104:	01e90502 	mvneq	r0, r2, lsl #10
 108:	04020000 	streq	r0, [r2], #-0
 10c:	0002d705 	andeq	sp, r2, r5, lsl #14
 110:	08010200 	stmdaeq	r1, {r9}
 114:	000003a5 	andeq	r0, r0, r5, lsr #7
 118:	00065c0a 	andeq	r5, r6, sl, lsl #24
 11c:	34040700 	strcc	r0, [r4], #-1792	@ 0xfffff900
 120:	02000000 	andeq	r0, r0, #0
 124:	021f0617 	andseq	r0, pc, #24117248	@ 0x1700000
 128:	c0010000 	andgt	r0, r1, r0
 12c:	00000001 	andeq	r0, r0, r1
 130:	0005f001 	andeq	pc, r5, r1
 134:	11010100 	mrsne	r0, (UNDEF: 17)
 138:	02000007 	andeq	r0, r0, #7
 13c:	0002ee01 	andeq	lr, r2, r1, lsl #28
 140:	8b010300 	blhi	40d48 <shift+0x40d48>
 144:	04000006 	streq	r0, [r0], #-6
 148:	00067501 	andeq	r7, r6, r1, lsl #10
 14c:	3b010500 	blcc	41554 <shift+0x41554>
 150:	06000007 	streq	r0, [r0], -r7
 154:	00069801 	andeq	r9, r6, r1, lsl #16
 158:	b7010700 	strlt	r0, [r1, -r0, lsl #14]
 15c:	08000003 	stmdaeq	r0, {r0, r1}
 160:	0005e101 	andeq	lr, r5, r1, lsl #2
 164:	13010900 	movwne	r0, #6400	@ 0x1900
 168:	0a000006 	beq	188 <shift+0x188>
 16c:	00062101 	andeq	r2, r6, r1, lsl #2
 170:	2f010b00 	svccs	0x00010b00
 174:	0c000006 	stceq	0, cr0, [r0], {6}
 178:	00050c01 	andeq	r0, r5, r1, lsl #24
 17c:	fc010d00 	vdot.bf16	d0, d1, d0
 180:	0e000004 	cdpeq	0, 0, cr0, cr0, cr4, {0}
 184:	0001dc01 	andeq	sp, r1, r1, lsl #24
 188:	ff010f00 			@ <UNDEFINED> instruction: 0xff010f00
 18c:	10000001 	andne	r0, r0, r1
 190:	0004ed01 	andeq	lr, r4, r1, lsl #26
 194:	db011100 	blle	4459c <shift+0x4459c>
 198:	12000006 	andne	r0, r0, #6
 19c:	00064b01 	andeq	r4, r6, r1, lsl #22
 1a0:	cc011300 	stcgt	3, cr1, [r1], {-0}
 1a4:	14000006 	strne	r0, [r0], #-6
 1a8:	00029601 	andeq	r9, r2, r1, lsl #12
 1ac:	39011500 	stmdbcc	r1, {r8, sl, ip}
 1b0:	16000002 	strne	r0, [r0], -r2
 1b4:	0001f301 	andeq	pc, r1, r1, lsl #6
 1b8:	a9011700 	stmdbge	r1, {r8, r9, sl, ip}
 1bc:	18000005 	stmdane	r0, {r0, r2}
 1c0:	00027801 	andeq	r7, r2, r1, lsl #16
 1c4:	5c011900 			@ <UNDEFINED> instruction: 0x5c011900
 1c8:	1a000001 	bne	1d4 <shift+0x1d4>
 1cc:	0006be01 	andeq	fp, r6, r1, lsl #28
 1d0:	e5011b00 	str	r1, [r1, #-2816]	@ 0xfffff500
 1d4:	1c000003 	stcne	0, cr0, [r0], {3}
 1d8:	0005c101 	andeq	ip, r5, r1, lsl #2
 1dc:	4c011d00 	stcmi	13, cr1, [r1], {-0}
 1e0:	1e000002 	cdpne	0, 0, cr0, cr0, cr2, {0}
 1e4:	00038101 	andeq	r8, r3, r1, lsl #2
 1e8:	e0011f00 	and	r1, r1, r0, lsl #30
 1ec:	20000002 	andcs	r0, r0, r2
 1f0:	00063d01 	andeq	r3, r6, r1, lsl #26
 1f4:	a6012100 	strge	r2, [r1], -r0, lsl #2
 1f8:	22000006 	andcs	r0, r0, #6
 1fc:	0006e701 	andeq	lr, r6, r1, lsl #14
 200:	f5012300 			@ <UNDEFINED> instruction: 0xf5012300
 204:	24000006 	strcs	r0, [r0], #-6
 208:	00070301 	andeq	r0, r7, r1, lsl #6
 20c:	fc012500 	stc2	5, cr2, [r1], {-0}
 210:	26000003 	strcs	r0, [r0], -r3
 214:	00034501 	andeq	r4, r3, r1, lsl #10
 218:	5b012700 	blpl	49e20 <shift+0x49e20>
 21c:	28000002 	stmdacs	r0, {r1}
 220:	0003aa01 	andeq	sl, r3, r1, lsl #20
 224:	0c012900 			@ <UNDEFINED> instruction: 0x0c012900
 228:	2a000002 	bcs	238 <shift+0x238>
 22c:	00072101 	andeq	r2, r7, r1, lsl #2
 230:	68012b00 	stmdavs	r1, {r8, r9, fp, sp}
 234:	2c000006 	stccs	0, cr0, [r0], {6}
 238:	0002fa01 	andeq	pc, r2, r1, lsl #20
 23c:	09012d00 	stmdbeq	r1, {r8, sl, fp, sp}
 240:	2e000003 	cdpcs	0, 0, cr0, cr0, cr3, {0}
 244:	00031801 	andeq	r1, r3, r1, lsl #16
 248:	27012f00 	strcs	r2, [r1, -r0, lsl #30]
 24c:	30000003 	andcc	r0, r0, r3
 250:	0002c301 	andeq	ip, r2, r1, lsl #6
 254:	36013100 	strcc	r3, [r1], -r0, lsl #2
 258:	32000003 	andcc	r0, r0, #3
 25c:	00060401 	andeq	r0, r6, r1, lsl #8
 260:	54013300 	strpl	r3, [r1], #-768	@ 0xfffffd00
 264:	34000003 	strcc	r0, [r0], #-3
 268:	00036301 	andeq	r6, r3, r1, lsl #6
 26c:	ca013500 	bgt	4d674 <shift+0x4d674>
 270:	36000001 	strcc	r0, [r0], -r1
 274:	00053c01 	andeq	r3, r5, r1, lsl #24
 278:	4c013700 	stcmi	7, cr3, [r1], {-0}
 27c:	38000005 	stmdacc	r0, {r0, r2}
 280:	00055c01 	andeq	r5, r5, r1, lsl #24
 284:	a5013900 	strge	r3, [r1, #-2304]	@ 0xfffff700
 288:	3a000002 	bcc	298 <shift+0x298>
 28c:	00056c01 	andeq	r6, r5, r1, lsl #24
 290:	7c013b00 			@ <UNDEFINED> instruction: 0x7c013b00
 294:	3c000005 	stccc	0, cr0, [r0], {5}
 298:	00058c01 	andeq	r8, r5, r1, lsl #24
 29c:	6b013d00 	blvs	4f6a4 <shift+0x4f6a4>
 2a0:	3e000002 	cdpcc	0, 0, cr0, cr0, cr2, {0}
 2a4:	00021c01 	andeq	r1, r2, r1, lsl #24
 2a8:	72013f00 	andvc	r3, r1, #0, 30
 2ac:	40000003 	andmi	r0, r0, r3
 2b0:	00052b01 	andeq	r2, r5, r1, lsl #22
 2b4:	b4014100 	strlt	r4, [r1], #-256	@ 0xffffff00
 2b8:	42000005 	andmi	r0, r0, #5
 2bc:	02850b00 	addeq	r0, r5, #0, 22
 2c0:	02080000 	andeq	r0, r8, #0
 2c4:	4608028c 	strmi	r0, [r8], -ip, lsl #5
 2c8:	05000002 	streq	r0, [r0, #-2]
 2cc:	00000397 	muleq	r0, r7, r3
 2d0:	007a0291 			@ <UNDEFINED> instruction: 0x007a0291
 2d4:	05000000 	streq	r0, [r0, #-0]
 2d8:	000002b2 			@ <UNDEFINED> instruction: 0x000002b2
 2dc:	007a0292 			@ <UNDEFINED> instruction: 0x007a0292
 2e0:	00040000 	andeq	r0, r4, r0
 2e4:	00021f06 	andeq	r1, r2, r6, lsl #30
 2e8:	02460c00 	subeq	r0, r6, #0, 24
 2ec:	025b0000 	subseq	r0, fp, #0
 2f0:	340d0000 	strcc	r0, [sp], #-0
 2f4:	11000000 	mrsne	r0, (UNDEF: 0)
 2f8:	024b0600 	subeq	r0, fp, #0, 12
 2fc:	190e0000 	stmdbne	lr, {}	@ <UNPREDICTABLE>
 300:	02000005 	andeq	r0, r0, #5
 304:	5b260295 	blpl	980d60 <shift+0x980d60>
 308:	90000002 	andls	r0, r0, r2
 30c:	0000003e 	andeq	r0, r0, lr, lsr r0
 310:	00000041 	andeq	r0, r0, r1, asr #32
 314:	0000000c 	andeq	r0, r0, ip
 318:	00000041 	andeq	r0, r0, r1, asr #32
 31c:	00000011 	andeq	r0, r0, r1, lsl r0
 320:	00000041 	andeq	r0, r0, r1, asr #32
 324:	00000027 	andeq	r0, r0, r7, lsr #32
 328:	00000041 	andeq	r0, r0, r1, asr #32
 32c:	00000036 	andeq	r0, r0, r6, lsr r0
 330:	00000041 	andeq	r0, r0, r1, asr #32
 334:	00000003 	andeq	r0, r0, r3
 338:	00000041 	andeq	r0, r0, r1, asr #32
 33c:	00000006 	andeq	r0, r0, r6
 340:	00000041 	andeq	r0, r0, r1, asr #32
 344:	00000015 	andeq	r0, r0, r5, lsl r0
 348:	00000041 	andeq	r0, r0, r1, asr #32
 34c:	0000000f 	andeq	r0, r0, pc
 350:	00000041 	andeq	r0, r0, r1, asr #32
 354:	0000000e 	andeq	r0, r0, lr
 358:	00000041 	andeq	r0, r0, r1, asr #32
 35c:	00000026 	andeq	r0, r0, r6, lsr #32
 360:	00000041 	andeq	r0, r0, r1, asr #32
 364:	00000013 	andeq	r0, r0, r3, lsl r0
 368:	00000041 	andeq	r0, r0, r1, asr #32
 36c:	00000029 	andeq	r0, r0, r9, lsr #32
 370:	00000041 	andeq	r0, r0, r1, asr #32
 374:	00000002 	andeq	r0, r0, r2
 378:	00000041 	andeq	r0, r0, r1, asr #32
 37c:	00000019 	andeq	r0, r0, r9, lsl r0
 380:	00000041 	andeq	r0, r0, r1, asr #32
 384:	0000000a 	andeq	r0, r0, sl
 388:	00000041 	andeq	r0, r0, r1, asr #32
 38c:	0000000b 	andeq	r0, r0, fp
 390:	00000041 	andeq	r0, r0, r1, asr #32
	...
 39c:	0003c607 	andeq	ip, r3, r7, lsl #12
 3a0:	00348100 	eorseq	r8, r4, r0, lsl #2
 3a4:	44070000 	strmi	r0, [r7], #-0
 3a8:	85000002 	strhi	r0, [r0, #-2]
 3ac:	00000026 	andeq	r0, r0, r6, lsr #32
 3b0:	ba040402 	blt	1013c0 <shift+0x1013c0>
 3b4:	02000001 	andeq	r0, r0, #1
 3b8:	01b20308 			@ <UNDEFINED> instruction: 0x01b20308
 3bc:	08020000 	stmdaeq	r2, {}	@ <UNPREDICTABLE>
 3c0:	0002bc04 	andeq	fp, r2, r4, lsl #24
 3c4:	03100200 	tsteq	r0, #0, 4
 3c8:	000005d2 	ldrdeq	r0, [r0], -r2
 3cc:	00059c0f 	andeq	r9, r5, pc, lsl #24
 3d0:	039f0100 	orrseq	r0, pc, #0, 2
 3d4:	00030801 	andeq	r0, r3, r1, lsl #16
 3d8:	800f0c00 	andhi	r0, pc, r0, lsl #24
 3dc:	00010687 	andeq	r0, r1, r7, lsl #13
 3e0:	fd9c0100 	ldc2	1, cr0, [ip]
 3e4:	04000003 	streq	r0, [r0], #-3
 3e8:	0817006e 	ldmdaeq	r7, {r1, r2, r3, r5, r6}
 3ec:	10000003 	andne	r0, r0, r3
 3f0:	0c000000 	stceq	0, cr0, [r0], {-0}
 3f4:	04000000 	streq	r0, [r0], #-0
 3f8:	08220064 	stmdaeq	r2!, {r2, r5, r6}
 3fc:	2c000003 	stccs	0, cr0, [r0], {3}
 400:	26000000 	strcs	r0, [r0], -r0
 404:	04000000 	streq	r0, [r0], #-0
 408:	2e007072 	mcrcs	0, 0, r7, cr0, cr2, {3}
 40c:	000003fd 	strdeq	r0, [r0], -sp
 410:	00000052 	andeq	r0, r0, r2, asr r0
 414:	0000004e 	andeq	r0, r0, lr, asr #32
 418:	a1007103 	tstge	r0, r3, lsl #2
 41c:	03080b03 	movweq	r0, #35587	@ 0x8b03
 420:	006c0000 	rsbeq	r0, ip, r0
 424:	00620000 	rsbeq	r0, r2, r0
 428:	72030000 	andvc	r0, r3, #0
 42c:	1203a100 	andne	sl, r3, #0, 2
 430:	00000308 	andeq	r0, r0, r8, lsl #6
 434:	000000bc 	strheq	r0, [r0], -ip
 438:	000000ae 	andeq	r0, r0, lr, lsr #1
 43c:	a1007903 	tstge	r0, r3, lsl #18
 440:	03081903 	movweq	r1, #35075	@ 0x8903
 444:	01110000 	tsteq	r1, r0
 448:	01090000 	mrseq	r0, (UNDEF: 9)
 44c:	6c030000 	stcvs	0, cr0, [r3], {-0}
 450:	a200317a 	andge	r3, r0, #-2147483618	@ 0x8000001e
 454:	02fe0a03 	rscseq	r0, lr, #12288	@ 0x3000
 458:	013f0000 	teqeq	pc, r0
 45c:	013d0000 	teqeq	sp, r0
 460:	6c030000 	stcvs	0, cr0, [r3], {-0}
 464:	a200327a 	andge	r3, r0, #-1610612729	@ 0xa0000007
 468:	02fe0f03 	rscseq	r0, lr, #3, 30
 46c:	01490000 	mrseq	r0, (UNDEF: 73)
 470:	01470000 	mrseq	r0, (UNDEF: 71)
 474:	69030000 	stmdbvs	r3, {}	@ <UNPREDICTABLE>
 478:	1403a200 	strne	sl, [r3], #-512	@ 0xfffffe00
 47c:	000002fe 	strdeq	r0, [r0], -lr
 480:	00000159 	andeq	r0, r0, r9, asr r1
 484:	0000014f 	andeq	r0, r0, pc, asr #2
 488:	a2006b03 	andge	r6, r0, #3072	@ 0xc00
 48c:	02fe1703 	rscseq	r1, lr, #786432	@ 0xc0000
 490:	01820000 	orreq	r0, r2, r0
 494:	01800000 	orreq	r0, r0, r0
 498:	10000000 	andne	r0, r0, r0
 49c:	00030804 	andeq	r0, r3, r4, lsl #16
	...

Disassembly of section .debug_abbrev:

00000000 <.debug_abbrev>:
   0:	10011101 	andne	r1, r1, r1, lsl #2
   4:	12011117 	andne	r1, r1, #-1073741819	@ 0xc0000005
   8:	1b0e030f 	blne	380c4c <shift+0x380c4c>
   c:	130e250e 	movwne	r2, #58638	@ 0xe50e
  10:	02000005 	andeq	r0, r0, #5
  14:	0e03002e 	cdpeq	0, 0, cr0, cr3, cr14, {1}
  18:	1549193f 	strbne	r1, [r9, #-2367]	@ 0xfffff6c1
  1c:	0f120111 	svceq	0x00120111
  20:	3b030000 	blcc	c0028 <shift+0xc0028>
  24:	00000000 	andeq	r0, r0, r0
  28:	10001101 	andne	r1, r0, r1, lsl #2
  2c:	12011117 	andne	r1, r1, #-1073741819	@ 0xc0000005
  30:	1b0e030f 	blne	380c74 <shift+0x380c74>
  34:	130e250e 	movwne	r2, #58638	@ 0xe50e
  38:	00000005 	andeq	r0, r0, r5
  3c:	10011101 	andne	r1, r1, r1, lsl #2
  40:	12011117 	andne	r1, r1, #-1073741819	@ 0xc0000005
  44:	1b0e030f 	blne	380c88 <shift+0x380c88>
  48:	130e250e 	movwne	r2, #58638	@ 0xe50e
  4c:	02000005 	andeq	r0, r0, #5
  50:	0e03002e 	cdpeq	0, 0, cr0, cr3, cr14, {1}
  54:	01111549 	tsteq	r1, r9, asr #10
  58:	00000f12 	andeq	r0, r0, r2, lsl pc
  5c:	00003b03 	andeq	r3, r0, r3, lsl #22
  60:	28010000 	stmdacs	r1, {}	@ <UNPREDICTABLE>
  64:	1c0e0300 	stcne	3, cr0, [lr], {-0}
  68:	0200000b 	andeq	r0, r0, #11
  6c:	0b0b0024 	bleq	2c0104 <shift+0x2c0104>
  70:	0e030b3e 	vmoveq.16	d3[0], r0
  74:	34030000 	strcc	r0, [r3], #-0
  78:	3a080300 	bcc	200c80 <shift+0x200c80>
  7c:	053b0121 	ldreq	r0, [fp, #-289]!	@ 0xfffffedf
  80:	13490b39 	movtne	r0, #39737	@ 0x9b39
  84:	42b71702 	adcsmi	r1, r7, #524288	@ 0x80000
  88:	04000017 	streq	r0, [r0], #-23	@ 0xffffffe9
  8c:	08030005 	stmdaeq	r3, {r0, r2}
  90:	3b01213a 	blcc	48580 <shift+0x48580>
  94:	39079f21 	stmdbcc	r7, {r0, r5, r8, r9, sl, fp, ip, pc}
  98:	0213490b 	andseq	r4, r3, #180224	@ 0x2c000
  9c:	1742b717 	smlaldne	fp, r2, r7, r7
  a0:	0d050000 	stceq	0, cr0, [r5, #-0]
  a4:	3a0e0300 	bcc	380cac <shift+0x380cac>
  a8:	053b0221 	ldreq	r0, [fp, #-545]!	@ 0xfffffddf
  ac:	49142139 	ldmdbmi	r4, {r0, r3, r4, r5, r8, sp}
  b0:	000b3813 	andeq	r3, fp, r3, lsl r8
  b4:	00260600 	eoreq	r0, r6, r0, lsl #12
  b8:	00001349 	andeq	r1, r0, r9, asr #6
  bc:	03001607 	movweq	r1, #1543	@ 0x607
  c0:	03213a0e 			@ <UNDEFINED> instruction: 0x03213a0e
  c4:	21390b3b 	teqcs	r9, fp, lsr fp
  c8:	00134916 	andseq	r4, r3, r6, lsl r9
  cc:	01110800 	tsteq	r1, r0, lsl #16
  d0:	0b130e25 	bleq	4c396c <shift+0x4c396c>
  d4:	0e1b0e03 	cdpeq	14, 1, cr0, cr11, cr3, {0}
  d8:	06120111 			@ <UNDEFINED> instruction: 0x06120111
  dc:	00001710 	andeq	r1, r0, r0, lsl r7
  e0:	0b002409 	bleq	910c <shift+0x910c>
  e4:	030b3e0b 	movweq	r3, #48651	@ 0xbe0b
  e8:	0a000008 	beq	110 <shift+0x110>
  ec:	0e030104 	adfeqs	f0, f3, f4
  f0:	0b0b0b3e 	bleq	2c2df0 <shift+0x2c2df0>
  f4:	0b3a1349 	bleq	e84e20 <shift+0xe84e20>
  f8:	0b390b3b 	bleq	e42dec <shift+0xe42dec>
  fc:	00001301 	andeq	r1, r0, r1, lsl #6
 100:	0301130b 	movweq	r1, #4875	@ 0x130b
 104:	3a0b0b0e 	bcc	2c2d44 <shift+0x2c2d44>
 108:	39053b0b 	stmdbcc	r5, {r0, r1, r3, r8, r9, fp, ip, sp}
 10c:	0013010b 	andseq	r0, r3, fp, lsl #2
 110:	01010c00 	tsteq	r1, r0, lsl #24
 114:	13011349 	movwne	r1, #4937	@ 0x1349
 118:	210d0000 	mrscs	r0, (UNDEF: 13)
 11c:	2f134900 	svccs	0x00134900
 120:	0e00000b 	cdpeq	0, 0, cr0, cr0, cr11, {0}
 124:	0e030034 	mcreq	0, 0, r0, cr3, cr4, {1}
 128:	053b0b3a 	ldreq	r0, [fp, #-2874]!	@ 0xfffff4c6
 12c:	13490b39 	movtne	r0, #39737	@ 0x9b39
 130:	00000a1c 	andeq	r0, r0, ip, lsl sl
 134:	3f012e0f 	svccc	0x00012e0f
 138:	3a0e0319 	bcc	380da4 <shift+0x380da4>
 13c:	39053b0b 	stmdbcc	r5, {r0, r1, r3, r8, r9, fp, ip, sp}
 140:	4919270b 	ldmdbmi	r9, {r0, r1, r3, r8, r9, sl, sp}
 144:	12011113 	andne	r1, r1, #-1073741820	@ 0xc0000004
 148:	7a184006 	bvc	610168 <shift+0x610168>
 14c:	00130119 	andseq	r0, r3, r9, lsl r1
 150:	000f1000 	andeq	r1, pc, r0
 154:	13490b0b 	movtne	r0, #39691	@ 0x9b0b
 158:	Address 0x158 is out of bounds.


Disassembly of section .debug_aranges:

00000000 <.debug_aranges>:
   0:	0000001c 	andeq	r0, r0, ip, lsl r0
   4:	00000002 	andeq	r0, r0, r2
   8:	00040000 	andeq	r0, r4, r0
   c:	00000000 	andeq	r0, r0, r0
  10:	87800c58 			@ <UNDEFINED> instruction: 0x87800c58
  14:	00000276 	andeq	r0, r0, r6, ror r2
	...
  20:	0000001c 	andeq	r0, r0, ip, lsl r0
  24:	003e0002 	eorseq	r0, lr, r2
  28:	00040000 	andeq	r0, r4, r0
  2c:	00000000 	andeq	r0, r0, r0
  30:	87800ed0 			@ <UNDEFINED> instruction: 0x87800ed0
  34:	00000030 	andeq	r0, r0, r0, lsr r0
	...
  40:	0000001c 	andeq	r0, r0, ip, lsl r0
  44:	00620002 	rsbeq	r0, r2, r2
  48:	00040000 	andeq	r0, r4, r0
  4c:	00000000 	andeq	r0, r0, r0
  50:	87800f00 	strhi	r0, [r0, r0, lsl #30]
  54:	0000000c 	andeq	r0, r0, ip
	...
  60:	0000001c 	andeq	r0, r0, ip, lsl r0
  64:	009e0002 	addseq	r0, lr, r2
  68:	00040000 	andeq	r0, r4, r0
  6c:	00000000 	andeq	r0, r0, r0
  70:	87800f0c 	strhi	r0, [r0, ip, lsl #30]
  74:	00000106 	andeq	r0, r0, r6, lsl #2
	...

Disassembly of section .debug_str:

00000000 <.debug_str>:
   0:	7461642f 	strbtvc	r6, [r1], #-1071	@ 0xfffffbd1
   4:	656a2f61 	strbvs	r2, [sl, #-3937]!	@ 0xfffff09f
   8:	6e696b6e 	vnmulvs.f64	d22, d9, d30
   c:	6f772f73 	svcvs	0x00772f73
  10:	70736b72 	rsbsvc	r6, r3, r2, ror fp
  14:	2f656361 	svccs	0x00656361
  18:	2d554e47 	ldclcs	14, cr4, [r5, #-284]	@ 0xfffffee4
  1c:	6c6f6f74 	stclvs	15, cr6, [pc], #-464	@ fffffe54 <__bss_end+0x787fe852>
  20:	69616863 	stmdbvs	r1!, {r0, r1, r5, r6, fp, sp, lr}^
  24:	72612f6e 	rsbvc	r2, r1, #440	@ 0x1b8
  28:	33312d6d 	teqcc	r1, #6976	@ 0x1b40
  2c:	6372732f 	cmnvs	r2, #-1140850688	@ 0xbc000000
  30:	6363672f 	cmnvs	r3, #12320768	@ 0xbc0000
  34:	62696c2f 	rsbvs	r6, r9, #12032	@ 0x2f00
  38:	2f636367 	svccs	0x00636367
  3c:	666e6f63 	strbtvs	r6, [lr], -r3, ror #30
  40:	612f6769 			@ <UNDEFINED> instruction: 0x612f6769
  44:	6c2f6d72 	stcvs	13, cr6, [pc], #-456	@ fffffe84 <__bss_end+0x787fe882>
  48:	66316269 	ldrtvs	r6, [r1], -r9, ror #4
  4c:	73636e75 	cmnvc	r3, #1872	@ 0x750
  50:	2f00532e 	svccs	0x0000532e
  54:	61746164 	cmnvs	r4, r4, ror #2
  58:	6e656a2f 	vmulvs.f32	s13, s10, s31
  5c:	736e696b 	cmnvc	lr, #1753088	@ 0x1ac000
  60:	726f772f 	rsbvc	r7, pc, #12320768	@ 0xbc0000
  64:	6170736b 	cmnvs	r0, fp, ror #6
  68:	472f6563 	strmi	r6, [pc, -r3, ror #10]!
  6c:	742d554e 	strtvc	r5, [sp], #-1358	@ 0xfffffab2
  70:	636c6f6f 	cmnvs	ip, #444	@ 0x1bc
  74:	6e696168 	powvsez	f6, f1, #0.0
  78:	6d72612f 	ldfvse	f6, [r2, #-188]!	@ 0xffffff44
  7c:	2f33312d 	svccs	0x0033312d
  80:	6c697562 	cfstr64vs	mvdx7, [r9], #-392	@ 0xfffffe78
  84:	72612d64 	rsbvc	r2, r1, #100, 26	@ 0x1900
  88:	6f6e2d6d 	svcvs	0x006e2d6d
  8c:	6c2d656e 	cfstr32vs	mvfx6, [sp], #-440	@ 0xfffffe48
  90:	78756e69 	ldmdavc	r5!, {r0, r3, r5, r6, r9, sl, fp, sp, lr}^
  94:	756e672d 	strbvc	r6, [lr, #-1837]!	@ 0xfffff8d3
  98:	69626165 	stmdbvs	r2!, {r0, r2, r5, r6, r8, sp, lr}^
  9c:	6f2f6668 	svcvs	0x002f6668
  a0:	672f6a62 	strvs	r6, [pc, -r2, ror #20]!
  a4:	2f336363 	svccs	0x00336363
  a8:	2d6d7261 	sfmcs	f7, 2, [sp, #-388]!	@ 0xfffffe7c
  ac:	656e6f6e 	strbvs	r6, [lr, #-3950]!	@ 0xfffff092
  b0:	6e696c2d 	cdpvs	12, 6, cr6, cr9, cr13, {1}
  b4:	672d7875 			@ <UNDEFINED> instruction: 0x672d7875
  b8:	6165756e 	cmnvs	r5, lr, ror #10
  bc:	66686962 	strbtvs	r6, [r8], -r2, ror #18
  c0:	62696c2f 	rsbvs	r6, r9, #12032	@ 0x2f00
  c4:	00636367 	rsbeq	r6, r3, r7, ror #6
  c8:	20554e47 	subscs	r4, r5, r7, asr #28
  cc:	32205341 	eorcc	r5, r0, #67108865	@ 0x4000001
  d0:	2e31342e 	cdpcs	4, 3, cr3, cr1, cr14, {1}
  d4:	5f5f0030 	svcpl	0x005f0030
  d8:	76696475 			@ <UNDEFINED> instruction: 0x76696475
  dc:	00336973 	eorseq	r6, r3, r3, ror r9
  e0:	65615f5f 	strbvs	r5, [r1, #-3935]!	@ 0xfffff0a1
  e4:	5f696261 	svcpl	0x00696261
  e8:	69646975 	stmdbvs	r4!, {r0, r2, r4, r5, r6, r8, fp, sp, lr}^
  ec:	646f6d76 	strbtvs	r6, [pc], #-3446	@ f4 <shift+0xf4>
  f0:	61642f00 	cmnvs	r4, r0, lsl #30
  f4:	6a2f6174 	bvs	bd86cc <shift+0xbd86cc>
  f8:	696b6e65 	stmdbvs	fp!, {r0, r2, r5, r6, r9, sl, fp, sp, lr}^
  fc:	772f736e 	strvc	r7, [pc, -lr, ror #6]!
 100:	736b726f 	cmnvc	fp, #-268435450	@ 0xf0000006
 104:	65636170 	strbvs	r6, [r3, #-368]!	@ 0xfffffe90
 108:	554e472f 	strbpl	r4, [lr, #-1839]	@ 0xfffff8d1
 10c:	6f6f742d 	svcvs	0x006f742d
 110:	6168636c 	cmnvs	r8, ip, ror #6
 114:	612f6e69 			@ <UNDEFINED> instruction: 0x612f6e69
 118:	312d6d72 			@ <UNDEFINED> instruction: 0x312d6d72
 11c:	72732f33 	rsbsvc	r2, r3, #51, 30	@ 0xcc
 120:	63672f63 	cmnvs	r7, #396	@ 0x18c
 124:	696c2f63 	stmdbvs	ip!, {r0, r1, r5, r6, r8, r9, sl, fp, sp}^
 128:	63636762 	cmnvs	r3, #25690112	@ 0x1880000
 12c:	6e6f632f 	cdpvs	3, 6, cr6, cr15, cr15, {1}
 130:	2f676966 	svccs	0x00676966
 134:	2f6d7261 	svccs	0x006d7261
 138:	62617062 	rsbvs	r7, r1, #98	@ 0x62
 13c:	00532e69 	subseq	r2, r3, r9, ror #28
 140:	65615f5f 	strbvs	r5, [r1, #-3935]!	@ 0xfffff0a1
 144:	5f696261 	svcpl	0x00696261
 148:	7669646c 	strbtvc	r6, [r9], -ip, ror #8
 14c:	5f5f0030 	svcpl	0x005f0030
 150:	62616561 	rsbvs	r6, r1, #406847488	@ 0x18400000
 154:	64695f69 	strbtvs	r5, [r9], #-3945	@ 0xfffff097
 158:	00307669 	eorseq	r7, r0, r9, ror #12
 15c:	5f617369 	svcpl	0x00617369
 160:	5f746962 	svcpl	0x00746962
 164:	64657270 	strbtvs	r7, [r5], #-624	@ 0xfffffd90
 168:	00736572 	rsbseq	r6, r3, r2, ror r5
 16c:	7461642f 	strbtvc	r6, [r1], #-1071	@ 0xfffffbd1
 170:	656a2f61 	strbvs	r2, [sl, #-3937]!	@ 0xfffff09f
 174:	6e696b6e 	vnmulvs.f64	d22, d9, d30
 178:	6f772f73 	svcvs	0x00772f73
 17c:	70736b72 	rsbsvc	r6, r3, r2, ror fp
 180:	2f656361 	svccs	0x00656361
 184:	2d554e47 	ldclcs	14, cr4, [r5, #-284]	@ 0xfffffee4
 188:	6c6f6f74 	stclvs	15, cr6, [pc], #-464	@ ffffffc0 <__bss_end+0x787fe9be>
 18c:	69616863 	stmdbvs	r1!, {r0, r1, r5, r6, fp, sp, lr}^
 190:	72612f6e 	rsbvc	r2, r1, #440	@ 0x1b8
 194:	33312d6d 	teqcc	r1, #6976	@ 0x1b40
 198:	6372732f 	cmnvs	r2, #-1140850688	@ 0xbc000000
 19c:	6363672f 	cmnvs	r3, #12320768	@ 0xbc0000
 1a0:	62696c2f 	rsbvs	r6, r9, #12032	@ 0x2f00
 1a4:	2f636367 	svccs	0x00636367
 1a8:	6762696c 	strbvs	r6, [r2, -ip, ror #18]!
 1ac:	2e326363 	cdpcs	3, 3, cr6, cr2, cr3, {3}
 1b0:	6f630063 	svcvs	0x00630063
 1b4:	656c706d 	strbvs	r7, [ip, #-109]!	@ 0xffffff93
 1b8:	6c662078 	stclvs	0, cr2, [r6], #-480	@ 0xfffffe20
 1bc:	0074616f 	rsbseq	r6, r4, pc, ror #2
 1c0:	5f617369 	svcpl	0x00617369
 1c4:	69626f6e 	stmdbvs	r2!, {r1, r2, r3, r5, r6, r8, r9, sl, fp, sp, lr}^
 1c8:	73690074 	cmnvc	r9, #116	@ 0x74
 1cc:	69625f61 	stmdbvs	r2!, {r0, r5, r6, r8, r9, sl, fp, ip, lr}^
 1d0:	766d5f74 	uqsub16vc	r5, sp, r4
 1d4:	6c665f65 	stclvs	15, cr5, [r6], #-404	@ 0xfffffe6c
 1d8:	0074616f 	rsbseq	r6, r4, pc, ror #2
 1dc:	5f617369 	svcpl	0x00617369
 1e0:	5f746962 	svcpl	0x00746962
 1e4:	36317066 	ldrtcc	r7, [r1], -r6, rrx
 1e8:	6f687300 	svcvs	0x00687300
 1ec:	69207472 	stmdbvs	r0!, {r1, r4, r5, r6, sl, ip, sp, lr}
 1f0:	6900746e 	stmdbvs	r0, {r1, r2, r3, r5, r6, sl, ip, sp, lr}
 1f4:	625f6173 	subsvs	r6, pc, #-1073741796	@ 0xc000001c
 1f8:	735f7469 	cmpvc	pc, #1761607680	@ 0x69000000
 1fc:	69006365 	stmdbvs	r0, {r0, r2, r5, r6, r8, r9, sp, lr}
 200:	625f6173 	subsvs	r6, pc, #-1073741796	@ 0xc000001c
 204:	615f7469 	cmpvs	pc, r9, ror #8
 208:	00766964 	rsbseq	r6, r6, r4, ror #18
 20c:	5f617369 	svcpl	0x00617369
 210:	5f746962 	svcpl	0x00746962
 214:	6d6d7769 	stclvs	7, cr7, [sp, #-420]!	@ 0xfffffe5c
 218:	00327478 	eorseq	r7, r2, r8, ror r4
 21c:	5f617369 	svcpl	0x00617369
 220:	5f746962 	svcpl	0x00746962
 224:	72697571 	rsbvc	r7, r9, #473956352	@ 0x1c400000
 228:	6f6e5f6b 	svcvs	0x006e5f6b
 22c:	6c6f765f 	stclvs	6, cr7, [pc], #-380	@ b8 <shift+0xb8>
 230:	6c697461 	cfstrdvs	mvd7, [r9], #-388	@ 0xfffffe7c
 234:	65635f65 	strbvs	r5, [r3, #-3941]!	@ 0xfffff09b
 238:	61736900 	cmnvs	r3, r0, lsl #18
 23c:	7469625f 	strbtvc	r6, [r9], #-607	@ 0xfffffda1
 240:	00706d5f 	rsbseq	r6, r0, pc, asr sp
 244:	74494455 	strbvc	r4, [r9], #-1109	@ 0xfffffbab
 248:	00657079 	rsbeq	r7, r5, r9, ror r0
 24c:	5f617369 	svcpl	0x00617369
 250:	5f746962 	svcpl	0x00746962
 254:	766d7261 	strbtvc	r7, [sp], -r1, ror #4
 258:	69007435 	stmdbvs	r0, {r0, r2, r4, r5, sl, ip, sp, lr}
 25c:	625f6173 	subsvs	r6, pc, #-1073741796	@ 0xc000001c
 260:	615f7469 	cmpvs	pc, r9, ror #8
 264:	35766d72 	ldrbcc	r6, [r6, #-3442]!	@ 0xfffff28e
 268:	69006574 	stmdbvs	r0, {r2, r4, r5, r6, r8, sl, sp, lr}
 26c:	625f6173 	subsvs	r6, pc, #-1073741796	@ 0xc000001c
 270:	6e5f7469 	cdpvs	4, 5, cr7, cr15, cr9, {3}
 274:	006e6f65 	rsbeq	r6, lr, r5, ror #30
 278:	5f617369 	svcpl	0x00617369
 27c:	5f746962 	svcpl	0x00746962
 280:	36316662 	ldrtcc	r6, [r1], -r2, ror #12
 284:	69626600 	stmdbvs	r2!, {r9, sl, sp, lr}^
 288:	6d695f74 	stclvs	15, cr5, [r9, #-464]!	@ 0xfffffe30
 28c:	63696c70 	cmnvs	r9, #112, 24	@ 0x7000
 290:	6f697461 	svcvs	0x00697461
 294:	7369006e 	cmnvc	r9, #110	@ 0x6e
 298:	69625f61 	stmdbvs	r2!, {r0, r5, r6, r8, r9, sl, fp, ip, lr}^
 29c:	72635f74 	rsbvc	r5, r3, #116, 30	@ 0x1d0
 2a0:	6f747079 	svcvs	0x00747079
 2a4:	61736900 	cmnvs	r3, r0, lsl #18
 2a8:	7469625f 	strbtvc	r6, [r9], #-607	@ 0xfffffda1
 2ac:	6964745f 	stmdbvs	r4!, {r0, r1, r2, r3, r4, r6, sl, ip, sp, lr}^
 2b0:	6f630076 	svcvs	0x00630076
 2b4:	6c00736e 	stcvs	3, cr7, [r0], {110}	@ 0x6e
 2b8:	20676e6f 	rsbcs	r6, r7, pc, ror #28
 2bc:	62756f64 	rsbsvs	r6, r5, #100, 30	@ 0x190
 2c0:	6900656c 	stmdbvs	r0, {r2, r3, r5, r6, r8, sl, sp, lr}
 2c4:	625f6173 	subsvs	r6, pc, #-1073741796	@ 0xc000001c
 2c8:	695f7469 	ldmdbvs	pc, {r0, r3, r5, r6, sl, ip, sp, lr}^	@ <UNPREDICTABLE>
 2cc:	786d6d77 	stmdavc	sp!, {r0, r1, r2, r4, r5, r6, r8, sl, fp, sp, lr}^
 2d0:	6f6c0074 	svcvs	0x006c0074
 2d4:	6c20676e 	stcvs	7, cr6, [r0], #-440	@ 0xfffffe48
 2d8:	20676e6f 	rsbcs	r6, r7, pc, ror #28
 2dc:	00746e69 	rsbseq	r6, r4, r9, ror #28
 2e0:	5f617369 	svcpl	0x00617369
 2e4:	5f746962 	svcpl	0x00746962
 2e8:	766d7261 	strbtvc	r7, [sp], -r1, ror #4
 2ec:	73690036 	cmnvc	r9, #54	@ 0x36
 2f0:	69625f61 	stmdbvs	r2!, {r0, r5, r6, r8, r9, sl, fp, ip, lr}^
 2f4:	766d5f74 	uqsub16vc	r5, sp, r4
 2f8:	73690065 	cmnvc	r9, #101	@ 0x65
 2fc:	69625f61 	stmdbvs	r2!, {r0, r5, r6, r8, r9, sl, fp, ip, lr}^
 300:	64635f74 	strbtvs	r5, [r3], #-3956	@ 0xfffff08c
 304:	30706365 	rsbscc	r6, r0, r5, ror #6
 308:	61736900 	cmnvs	r3, r0, lsl #18
 30c:	7469625f 	strbtvc	r6, [r9], #-607	@ 0xfffffda1
 310:	6564635f 	strbvs	r6, [r4, #-863]!	@ 0xfffffca1
 314:	00317063 	eorseq	r7, r1, r3, rrx
 318:	5f617369 	svcpl	0x00617369
 31c:	5f746962 	svcpl	0x00746962
 320:	63656463 	cmnvs	r5, #1660944384	@ 0x63000000
 324:	69003270 	stmdbvs	r0, {r4, r5, r6, r9, ip, sp}
 328:	625f6173 	subsvs	r6, pc, #-1073741796	@ 0xc000001c
 32c:	635f7469 	cmpvs	pc, #1761607680	@ 0x69000000
 330:	70636564 	rsbvc	r6, r3, r4, ror #10
 334:	73690033 	cmnvc	r9, #51	@ 0x33
 338:	69625f61 	stmdbvs	r2!, {r0, r5, r6, r8, r9, sl, fp, ip, lr}^
 33c:	64635f74 	strbtvs	r5, [r3], #-3956	@ 0xfffff08c
 340:	34706365 	ldrbtcc	r6, [r0], #-869	@ 0xfffffc9b
 344:	61736900 	cmnvs	r3, r0, lsl #18
 348:	7469625f 	strbtvc	r6, [r9], #-607	@ 0xfffffda1
 34c:	5f70665f 	svcpl	0x0070665f
 350:	006c6264 	rsbeq	r6, ip, r4, ror #4
 354:	5f617369 	svcpl	0x00617369
 358:	5f746962 	svcpl	0x00746962
 35c:	63656463 	cmnvs	r5, #1660944384	@ 0x63000000
 360:	69003670 	stmdbvs	r0, {r4, r5, r6, r9, sl, ip, sp}
 364:	625f6173 	subsvs	r6, pc, #-1073741796	@ 0xc000001c
 368:	635f7469 	cmpvs	pc, #1761607680	@ 0x69000000
 36c:	70636564 	rsbvc	r6, r3, r4, ror #10
 370:	73690037 	cmnvc	r9, #55	@ 0x37
 374:	69625f61 	stmdbvs	r2!, {r0, r5, r6, r8, r9, sl, fp, ip, lr}^
 378:	72615f74 	rsbvc	r5, r1, #116, 30	@ 0x1d0
 37c:	6b36766d 	blvs	d9dd38 <shift+0xd9dd38>
 380:	61736900 	cmnvs	r3, r0, lsl #18
 384:	7469625f 	strbtvc	r6, [r9], #-607	@ 0xfffffda1
 388:	6d72615f 	ldfvse	f6, [r2, #-380]!	@ 0xfffffe84
 38c:	315f3876 	cmpcc	pc, r6, ror r8	@ <UNPREDICTABLE>
 390:	616d5f6d 	cmnvs	sp, sp, ror #30
 394:	61006e69 	tstvs	r0, r9, ror #28
 398:	0065746e 	rsbeq	r7, r5, lr, ror #8
 39c:	69736e75 	ldmdbvs	r3!, {r0, r2, r4, r5, r6, r9, sl, fp, sp, lr}^
 3a0:	64656e67 	strbtvs	r6, [r5], #-3687	@ 0xfffff199
 3a4:	61686320 	cmnvs	r8, r0, lsr #6
 3a8:	73690072 	cmnvc	r9, #114	@ 0x72
 3ac:	69625f61 	stmdbvs	r2!, {r0, r5, r6, r8, r9, sl, fp, ip, lr}^
 3b0:	70665f74 	rsbvc	r5, r6, r4, ror pc
 3b4:	69003576 	stmdbvs	r0, {r1, r2, r4, r5, r6, r8, sl, ip, sp}
 3b8:	625f6173 	subsvs	r6, pc, #-1073741796	@ 0xc000001c
 3bc:	785f7469 	ldmdavc	pc, {r0, r3, r5, r6, sl, ip, sp, lr}^	@ <UNPREDICTABLE>
 3c0:	6c616373 	stclvs	3, cr6, [r1], #-460	@ 0xfffffe34
 3c4:	53550065 	cmppl	r5, #101	@ 0x65
 3c8:	70797449 	rsbsvc	r7, r9, r9, asr #8
 3cc:	6f6c0065 	svcvs	0x006c0065
 3d0:	6c20676e 	stcvs	7, cr6, [r0], #-440	@ 0xfffffe48
 3d4:	20676e6f 	rsbcs	r6, r7, pc, ror #28
 3d8:	69736e75 	ldmdbvs	r3!, {r0, r2, r4, r5, r6, r9, sl, fp, sp, lr}^
 3dc:	64656e67 	strbtvs	r6, [r5], #-3687	@ 0xfffff199
 3e0:	746e6920 	strbtvc	r6, [lr], #-2336	@ 0xfffff6e0
 3e4:	61736900 	cmnvs	r3, r0, lsl #18
 3e8:	7469625f 	strbtvc	r6, [r9], #-607	@ 0xfffffda1
 3ec:	6975715f 	ldmdbvs	r5!, {r0, r1, r2, r3, r4, r6, r8, ip, sp, lr}^
 3f0:	635f6b72 	cmpvs	pc, #116736	@ 0x1c800
 3f4:	6c5f336d 	mrrcvs	3, 6, r3, pc, cr13	@ <UNPREDICTABLE>
 3f8:	00647264 	rsbeq	r7, r4, r4, ror #4
 3fc:	5f617369 	svcpl	0x00617369
 400:	5f746962 	svcpl	0x00746962
 404:	6d6d3869 	stclvs	8, cr3, [sp, #-420]!	@ 0xfffffe5c
 408:	554e4700 	strbpl	r4, [lr, #-1792]	@ 0xfffff900
 40c:	37314320 	ldrcc	r4, [r1, -r0, lsr #6]!
 410:	2e333120 	rsfcssp	f3, f3, f0
 414:	20312e32 	eorscs	r2, r1, r2, lsr lr
 418:	33323032 	teqcc	r2, #50	@ 0x32
 41c:	39303031 	ldmdbcc	r0!, {r0, r4, r5, ip, sp}
 420:	666d2d20 	strbtvs	r2, [sp], -r0, lsr #26
 424:	74616f6c 	strbtvc	r6, [r1], #-3948	@ 0xfffff094
 428:	6962612d 	stmdbvs	r2!, {r0, r2, r3, r5, r8, sp, lr}^
 42c:	7261683d 	rsbvc	r6, r1, #3997696	@ 0x3d0000
 430:	6d2d2064 	stcvs	0, cr2, [sp, #-400]!	@ 0xfffffe70
 434:	3d757066 	ldclcc	0, cr7, [r5, #-408]!	@ 0xfffffe68
 438:	6e6f656e 	cdpvs	5, 6, cr6, cr15, cr14, {3}
 43c:	746d2d20 	strbtvc	r2, [sp], #-3360	@ 0xfffff2e0
 440:	642d736c 	strtvs	r7, [sp], #-876	@ 0xfffffc94
 444:	656c6169 	strbvs	r6, [ip, #-361]!	@ 0xfffffe97
 448:	673d7463 	ldrvs	r7, [sp, -r3, ror #8]!
 44c:	2d20756e 	cfstr32cs	mvfx7, [r0, #-440]!	@ 0xfffffe48
 450:	7568746d 	strbvc	r7, [r8, #-1133]!	@ 0xfffffb93
 454:	2d20626d 	sfmcs	f6, 4, [r0, #-436]!	@ 0xfffffe4c
 458:	6372616d 	cmnvs	r2, #1073741851	@ 0x4000001b
 45c:	72613d68 	rsbvc	r3, r1, #104, 26	@ 0x1a00
 460:	2d37766d 	ldccs	6, cr7, [r7, #-436]!	@ 0xfffffe4c
 464:	69732b61 	ldmdbvs	r3!, {r0, r5, r6, r8, r9, fp, sp}^
 468:	2d20646d 	cfstrscs	mvf6, [r0, #-436]!	@ 0xfffffe4c
 46c:	672d2067 	strvs	r2, [sp, -r7, rrx]!
 470:	20672d20 	rsbcs	r2, r7, r0, lsr #26
 474:	20324f2d 	eorscs	r4, r2, sp, lsr #30
 478:	20324f2d 	eorscs	r4, r2, sp, lsr #30
 47c:	20324f2d 	eorscs	r4, r2, sp, lsr #30
 480:	7562662d 	strbvc	r6, [r2, #-1581]!	@ 0xfffff9d3
 484:	69646c69 	stmdbvs	r4!, {r0, r3, r5, r6, sl, fp, sp, lr}^
 488:	6c2d676e 	stcvs	7, cr6, [sp], #-440	@ 0xfffffe48
 48c:	63676269 	cmnvs	r7, #-1879048186	@ 0x90000006
 490:	662d2063 	strtvs	r2, [sp], -r3, rrx
 494:	732d6f6e 			@ <UNDEFINED> instruction: 0x732d6f6e
 498:	6b636174 	blvs	18d8a70 <shift+0x18d8a70>
 49c:	6f72702d 	svcvs	0x0072702d
 4a0:	74636574 	strbtvc	r6, [r3], #-1396	@ 0xfffffa8c
 4a4:	2d20726f 	sfmcs	f7, 4, [r0, #-444]!	@ 0xfffffe44
 4a8:	43495066 	movtmi	r5, #36966	@ 0x9066
 4ac:	6e662d20 	cdpvs	13, 6, cr2, cr6, cr0, {1}
 4b0:	6e692d6f 	cdpvs	13, 6, cr2, cr9, cr15, {3}
 4b4:	656e696c 	strbvs	r6, [lr, #-2412]!	@ 0xfffff694
 4b8:	65662d20 	strbvs	r2, [r6, #-3360]!	@ 0xfffff2e0
 4bc:	70656378 	rsbvc	r6, r5, r8, ror r3
 4c0:	6e6f6974 			@ <UNDEFINED> instruction: 0x6e6f6974
 4c4:	662d2073 			@ <UNDEFINED> instruction: 0x662d2073
 4c8:	69736976 	ldmdbvs	r3!, {r1, r2, r4, r5, r6, r8, fp, sp, lr}^
 4cc:	696c6962 	stmdbvs	ip!, {r1, r5, r6, r8, fp, sp, lr}^
 4d0:	683d7974 	ldmdavs	sp!, {r2, r4, r5, r6, r8, fp, ip, sp, lr}
 4d4:	65646469 	strbvs	r6, [r4, #-1129]!	@ 0xfffffb97
 4d8:	6873006e 	ldmdavs	r3!, {r1, r2, r3, r5, r6}^
 4dc:	2074726f 	rsbscs	r7, r4, pc, ror #4
 4e0:	69736e75 	ldmdbvs	r3!, {r0, r2, r4, r5, r6, r9, sl, fp, sp, lr}^
 4e4:	64656e67 	strbtvs	r6, [r5], #-3687	@ 0xfffff199
 4e8:	746e6920 	strbtvc	r6, [lr], #-2336	@ 0xfffff6e0
 4ec:	61736900 	cmnvs	r3, r0, lsl #18
 4f0:	7469625f 	strbtvc	r6, [r9], #-607	@ 0xfffffda1
 4f4:	5f70665f 	svcpl	0x0070665f
 4f8:	00323364 	eorseq	r3, r2, r4, ror #6
 4fc:	5f617369 	svcpl	0x00617369
 500:	5f746962 	svcpl	0x00746962
 504:	766d7261 	strbtvc	r7, [sp], -r1, ror #4
 508:	006d6537 	rsbeq	r6, sp, r7, lsr r5
 50c:	5f617369 	svcpl	0x00617369
 510:	5f746962 	svcpl	0x00746962
 514:	6561706c 	strbvs	r7, [r1, #-108]!	@ 0xffffff94
 518:	6c6c6100 	stfvse	f6, [ip], #-0
 51c:	706d695f 	rsbvc	r6, sp, pc, asr r9
 520:	6465696c 	strbtvs	r6, [r5], #-2412	@ 0xfffff694
 524:	6962665f 	stmdbvs	r2!, {r0, r1, r2, r3, r4, r6, r9, sl, sp, lr}^
 528:	69007374 	stmdbvs	r0, {r2, r4, r5, r6, r8, r9, ip, sp, lr}
 52c:	625f6173 	subsvs	r6, pc, #-1073741796	@ 0xc000001c
 530:	765f7469 	ldrbvc	r7, [pc], -r9, ror #8
 534:	625f7066 	subsvs	r7, pc, #102	@ 0x66
 538:	00657361 	rsbeq	r7, r5, r1, ror #6
 53c:	5f617369 	svcpl	0x00617369
 540:	5f746962 	svcpl	0x00746962
 544:	766d7261 	strbtvc	r7, [sp], -r1, ror #4
 548:	00315f38 	eorseq	r5, r1, r8, lsr pc
 54c:	5f617369 	svcpl	0x00617369
 550:	5f746962 	svcpl	0x00746962
 554:	766d7261 	strbtvc	r7, [sp], -r1, ror #4
 558:	00325f38 	eorseq	r5, r2, r8, lsr pc
 55c:	5f617369 	svcpl	0x00617369
 560:	5f746962 	svcpl	0x00746962
 564:	766d7261 	strbtvc	r7, [sp], -r1, ror #4
 568:	00335f38 	eorseq	r5, r3, r8, lsr pc
 56c:	5f617369 	svcpl	0x00617369
 570:	5f746962 	svcpl	0x00746962
 574:	766d7261 	strbtvc	r7, [sp], -r1, ror #4
 578:	00345f38 	eorseq	r5, r4, r8, lsr pc
 57c:	5f617369 	svcpl	0x00617369
 580:	5f746962 	svcpl	0x00746962
 584:	766d7261 	strbtvc	r7, [sp], -r1, ror #4
 588:	00355f38 	eorseq	r5, r5, r8, lsr pc
 58c:	5f617369 	svcpl	0x00617369
 590:	5f746962 	svcpl	0x00746962
 594:	766d7261 	strbtvc	r7, [sp], -r1, ror #4
 598:	00365f38 	eorseq	r5, r6, r8, lsr pc
 59c:	64755f5f 	ldrbtvs	r5, [r5], #-3935	@ 0xfffff0a1
 5a0:	6f6d7669 	svcvs	0x006d7669
 5a4:	34696464 	strbtcc	r6, [r9], #-1124	@ 0xfffffb9c
 5a8:	61736900 	cmnvs	r3, r0, lsl #18
 5ac:	7469625f 	strbtvc	r6, [r9], #-607	@ 0xfffffda1
 5b0:	0062735f 	rsbeq	r7, r2, pc, asr r3
 5b4:	5f617369 	svcpl	0x00617369
 5b8:	5f6d756e 	svcpl	0x006d756e
 5bc:	73746962 	cmnvc	r4, #1605632	@ 0x188000
 5c0:	61736900 	cmnvs	r3, r0, lsl #18
 5c4:	7469625f 	strbtvc	r6, [r9], #-607	@ 0xfffffda1
 5c8:	616d735f 	cmnvs	sp, pc, asr r3
 5cc:	756d6c6c 	strbvc	r6, [sp, #-3180]!	@ 0xfffff394
 5d0:	6f63006c 	svcvs	0x0063006c
 5d4:	656c706d 	strbvs	r7, [ip, #-109]!	@ 0xffffff93
 5d8:	6f642078 	svcvs	0x00642078
 5dc:	656c6275 	strbvs	r6, [ip, #-629]!	@ 0xfffffd8b
 5e0:	61736900 	cmnvs	r3, r0, lsl #18
 5e4:	7469625f 	strbtvc	r6, [r9], #-607	@ 0xfffffda1
 5e8:	6361705f 	cmnvs	r1, #95	@ 0x5f
 5ec:	00697462 	rsbeq	r7, r9, r2, ror #8
 5f0:	5f617369 	svcpl	0x00617369
 5f4:	5f746962 	svcpl	0x00746962
 5f8:	72697571 	rsbvc	r7, r9, #473956352	@ 0x1c400000
 5fc:	6c765f6b 	ldclvs	15, cr5, [r6], #-428	@ 0xfffffe54
 600:	006d646c 	rsbeq	r6, sp, ip, ror #8
 604:	5f617369 	svcpl	0x00617369
 608:	5f746962 	svcpl	0x00746962
 60c:	63656463 	cmnvs	r5, #1660944384	@ 0x63000000
 610:	69003570 	stmdbvs	r0, {r4, r5, r6, r8, sl, ip, sp}
 614:	625f6173 	subsvs	r6, pc, #-1073741796	@ 0xc000001c
 618:	765f7469 	ldrbvc	r7, [pc], -r9, ror #8
 61c:	32767066 	rsbscc	r7, r6, #102	@ 0x66
 620:	61736900 	cmnvs	r3, r0, lsl #18
 624:	7469625f 	strbtvc	r6, [r9], #-607	@ 0xfffffda1
 628:	7066765f 	rsbvc	r7, r6, pc, asr r6
 62c:	69003376 	stmdbvs	r0, {r1, r2, r4, r5, r6, r8, r9, ip, sp}
 630:	625f6173 	subsvs	r6, pc, #-1073741796	@ 0xc000001c
 634:	765f7469 	ldrbvc	r7, [pc], -r9, ror #8
 638:	34767066 	ldrbtcc	r7, [r6], #-102	@ 0xffffff9a
 63c:	61736900 	cmnvs	r3, r0, lsl #18
 640:	7469625f 	strbtvc	r6, [r9], #-607	@ 0xfffffda1
 644:	7568745f 	strbvc	r7, [r8, #-1119]!	@ 0xfffffba1
 648:	6900626d 	stmdbvs	r0, {r0, r2, r3, r5, r6, r9, sp, lr}
 64c:	625f6173 	subsvs	r6, pc, #-1073741796	@ 0xc000001c
 650:	665f7469 	ldrbvs	r7, [pc], -r9, ror #8
 654:	63363170 	teqvs	r6, #112, 2
 658:	00766e6f 	rsbseq	r6, r6, pc, ror #28
 65c:	5f617369 	svcpl	0x00617369
 660:	74616566 	strbtvc	r6, [r1], #-1382	@ 0xfffffa9a
 664:	00657275 	rsbeq	r7, r5, r5, ror r2
 668:	5f617369 	svcpl	0x00617369
 66c:	5f746962 	svcpl	0x00746962
 670:	6d746f6e 	ldclvs	15, cr6, [r4, #-440]!	@ 0xfffffe48
 674:	61736900 	cmnvs	r3, r0, lsl #18
 678:	7469625f 	strbtvc	r6, [r9], #-607	@ 0xfffffda1
 67c:	6975715f 	ldmdbvs	r5!, {r0, r1, r2, r3, r4, r6, r8, ip, sp, lr}^
 680:	615f6b72 	cmpvs	pc, r2, ror fp	@ <UNPREDICTABLE>
 684:	36766d72 			@ <UNDEFINED> instruction: 0x36766d72
 688:	69007a6b 	stmdbvs	r0, {r0, r1, r3, r5, r6, r9, fp, ip, sp, lr}
 68c:	625f6173 	subsvs	r6, pc, #-1073741796	@ 0xc000001c
 690:	635f7469 	cmpvs	pc, #1761607680	@ 0x69000000
 694:	0065736d 	rsbeq	r7, r5, sp, ror #6
 698:	5f617369 	svcpl	0x00617369
 69c:	5f746962 	svcpl	0x00746962
 6a0:	33637263 	cmncc	r3, #805306374	@ 0x30000006
 6a4:	73690032 	cmnvc	r9, #50	@ 0x32
 6a8:	69625f61 	stmdbvs	r2!, {r0, r5, r6, r8, r9, sl, fp, ip, lr}^
 6ac:	75715f74 	ldrbvc	r5, [r1, #-3956]!	@ 0xfffff08c
 6b0:	5f6b7269 	svcpl	0x006b7269
 6b4:	615f6f6e 	cmpvs	pc, lr, ror #30
 6b8:	70636d73 	rsbvc	r6, r3, r3, ror sp
 6bc:	73690075 	cmnvc	r9, #117	@ 0x75
 6c0:	69625f61 	stmdbvs	r2!, {r0, r5, r6, r8, r9, sl, fp, ip, lr}^
 6c4:	72615f74 	rsbvc	r5, r1, #116, 30	@ 0x1d0
 6c8:	0034766d 	eorseq	r7, r4, sp, ror #12
 6cc:	5f617369 	svcpl	0x00617369
 6d0:	5f746962 	svcpl	0x00746962
 6d4:	6d756874 	ldclvs	8, cr6, [r5, #-464]!	@ 0xfffffe30
 6d8:	69003262 	stmdbvs	r0, {r1, r5, r6, r9, ip, sp}
 6dc:	625f6173 	subsvs	r6, pc, #-1073741796	@ 0xc000001c
 6e0:	625f7469 	subsvs	r7, pc, #1761607680	@ 0x69000000
 6e4:	69003865 	stmdbvs	r0, {r0, r2, r5, r6, fp, ip, sp}
 6e8:	625f6173 	subsvs	r6, pc, #-1073741796	@ 0xc000001c
 6ec:	615f7469 	cmpvs	pc, r9, ror #8
 6f0:	37766d72 			@ <UNDEFINED> instruction: 0x37766d72
 6f4:	61736900 	cmnvs	r3, r0, lsl #18
 6f8:	7469625f 	strbtvc	r6, [r9], #-607	@ 0xfffffda1
 6fc:	6d72615f 	ldfvse	f6, [r2, #-380]!	@ 0xfffffe84
 700:	69003876 	stmdbvs	r0, {r1, r2, r4, r5, r6, fp, ip, sp}
 704:	625f6173 	subsvs	r6, pc, #-1073741796	@ 0xc000001c
 708:	615f7469 	cmpvs	pc, r9, ror #8
 70c:	39766d72 	ldmdbcc	r6!, {r1, r4, r5, r6, r8, sl, fp, sp, lr}^
 710:	61736900 	cmnvs	r3, r0, lsl #18
 714:	7469625f 	strbtvc	r6, [r9], #-607	@ 0xfffffda1
 718:	3170665f 	cmncc	r0, pc, asr r6
 71c:	6c6d6636 	stclvs	6, cr6, [sp], #-216	@ 0xffffff28
 720:	61736900 	cmnvs	r3, r0, lsl #18
 724:	7469625f 	strbtvc	r6, [r9], #-607	@ 0xfffffda1
 728:	6975715f 	ldmdbvs	r5!, {r0, r1, r2, r3, r4, r6, r8, ip, sp, lr}^
 72c:	615f6b72 	cmpvs	pc, r2, ror fp	@ <UNPREDICTABLE>
 730:	315f7365 	cmpcc	pc, r5, ror #6
 734:	30323437 	eorscc	r3, r2, r7, lsr r4
 738:	69003839 	stmdbvs	r0, {r0, r3, r4, r5, fp, ip, sp}
 73c:	625f6173 	subsvs	r6, pc, #-1073741796	@ 0xc000001c
 740:	645f7469 	ldrbvs	r7, [pc], #-1129	@ 748 <shift+0x748>
 744:	7270746f 	rsbsvc	r7, r0, #1862270976	@ 0x6f000000
 748:	Address 0x748 is out of bounds.


Disassembly of section .debug_loclists:

00000000 <.debug_loclists>:
   0:	00000185 	andeq	r0, r0, r5, lsl #3
   4:	00040005 	andeq	r0, r4, r5
	...
  10:	06120004 	ldreq	r0, [r2], -r4
  14:	51049350 	tstpl	r4, r0, asr r3
  18:	12040493 	andne	r0, r4, #-1828716544	@ 0x93000000
  1c:	a3060286 	movwge	r0, #25222	@ 0x6286
  20:	2600a503 	strcs	sl, [r0], -r3, lsl #10
  24:	0000009f 	muleq	r0, pc, r0	@ <UNPREDICTABLE>
  28:	00000000 	andeq	r0, r0, r0
  2c:	06440004 	strbeq	r0, [r4], -r4
  30:	53049352 	movwpl	r9, #17234	@ 0x4352
  34:	44040493 	strmi	r0, [r4], #-1171	@ 0xfffffb6d
  38:	a30601ee 	movwge	r0, #25070	@ 0x61ee
  3c:	2602a503 	strcs	sl, [r2], -r3, lsl #10
  40:	01ee049f 			@ <UNDEFINED> instruction: 0x01ee049f
  44:	52060286 	andpl	r0, r6, #1610612744	@ 0x60000008
  48:	93530493 	cmpls	r3, #-1828716544	@ 0x93000000
  4c:	00000004 	andeq	r0, r0, r4
  50:	00040000 	andeq	r0, r4, r0
  54:	910201ee 	smlattls	r2, lr, r1, r0
  58:	01ee0400 	mvneq	r0, r0, lsl #8
  5c:	91020286 	smlabbls	r2, r6, r2, r0
  60:	00020000 	andeq	r0, r2, r0
	...
  6c:	0a6c0004 	beq	1b00084 <shift+0x1b00084>
  70:	0000089e 	muleq	r0, lr, r8
  74:	00000000 	andeq	r0, r0, r0
  78:	6c040000 	stcvs	0, cr0, [r4], {-0}
  7c:	500601a6 	andpl	r0, r6, r6, lsr #3
  80:	93510493 	cmpls	r1, #-1828716544	@ 0x93000000
  84:	01b20404 			@ <UNDEFINED> instruction: 0x01b20404
  88:	500601e0 	andpl	r0, r6, r0, ror #3
  8c:	93510493 	cmpls	r1, #-1828716544	@ 0x93000000
  90:	01e40404 	mvneq	r0, r4, lsl #8
  94:	500601ee 	andpl	r0, r6, lr, ror #3
  98:	93510493 	cmpls	r1, #-1828716544	@ 0x93000000
  9c:	01ee0404 	mvneq	r0, r4, lsl #8
  a0:	9e0a0286 	cdpls	2, 0, cr0, cr10, cr6, {4}
  a4:	00000008 	andeq	r0, r0, r8
	...
  bc:	060c0804 	streq	r0, [ip], -r4, lsl #16
  c0:	51049350 	tstpl	r4, r0, asr r3
  c4:	0c040493 	cfstrseq	mvf0, [r4], {147}	@ 0x93
  c8:	93500612 	cmpls	r0, #18874368	@ 0x1200000
  cc:	04935504 	ldreq	r5, [r3], #1284	@ 0x504
  d0:	065c1204 	ldrbeq	r1, [ip], -r4, lsl #4
  d4:	55049354 	strpl	r9, [r4, #-852]	@ 0xfffffcac
  d8:	60040493 	mulvs	r4, r3, r4
  dc:	9354067e 	cmpls	r4, #132120576	@ 0x7e00000
  e0:	04935504 	ldreq	r5, [r3], #1284	@ 0x504
  e4:	9c018c04 	stcls	12, cr8, [r1], {4}
  e8:	93540601 	cmpls	r4, #1048576	@ 0x100000
  ec:	04935504 	ldreq	r5, [r3], #1284	@ 0x504
  f0:	a4019e04 	strge	r9, [r1], #-3588	@ 0xfffff1fc
  f4:	93540601 	cmpls	r4, #1048576	@ 0x100000
  f8:	04935504 	ldreq	r5, [r3], #1284	@ 0x504
  fc:	8601c004 	strhi	ip, [r1], -r4
 100:	93540602 	cmpls	r4, #2097152	@ 0x200000
 104:	04935504 	ldreq	r5, [r3], #1284	@ 0x504
	...
 110:	36080400 	strcc	r0, [r8], -r0, lsl #8
 114:	04935206 	ldreq	r5, [r3], #518	@ 0x206
 118:	04049353 	streq	r9, [r4], #-851	@ 0xfffffcad
 11c:	5806744a 	stmdapl	r6, {r1, r3, r6, sl, ip, sp, lr}
 120:	93530493 	cmpls	r3, #-1828716544	@ 0x93000000
 124:	c87a0404 	ldmdagt	sl!, {r2, sl}^
 128:	93520601 	cmpls	r2, #1048576	@ 0x100000
 12c:	04935304 	ldreq	r5, [r3], #772	@ 0x304
 130:	8601ee04 	strhi	lr, [r1], -r4, lsl #28
 134:	93520602 	cmpls	r2, #2097152	@ 0x200000
 138:	04935304 	ldreq	r5, [r3], #772	@ 0x304
 13c:	04000000 	streq	r0, [r0], #-0
 140:	02860280 	addeq	r0, r6, #128, 4
 144:	00005601 	andeq	r5, r0, r1, lsl #12
 148:	3a2a0400 	bcc	a81150 <shift+0xa81150>
 14c:	01005101 	tsteq	r0, r1, lsl #2
 150:	00000101 	andeq	r0, r0, r1, lsl #2
 154:	00000101 	andeq	r0, r0, r1, lsl #2
 158:	8c7a0400 	cfldrdhi	mvd0, [sl], #-0
 15c:	04580101 	ldrbeq	r0, [r8], #-257	@ 0xfffffeff
 160:	0190018c 	orrseq	r0, r0, ip, lsl #3
 164:	9f7f7803 	svcls	0x007f7803
 168:	9e019004 	cdpls	0, 0, cr9, cr1, cr4, {0}
 16c:	04580101 	ldrbeq	r0, [r8], #-257	@ 0xfffffeff
 170:	01a2019e 			@ <UNDEFINED> instruction: 0x01a2019e
 174:	9f7f7803 	svcls	0x007f7803
 178:	e401a204 	str	sl, [r1], #-516	@ 0xfffffdfc
 17c:	00580101 	subseq	r0, r8, r1, lsl #2
 180:	2c040000 	stccs	0, cr0, [r4], {-0}
 184:	560101e4 	strpl	r0, [r1], -r4, ror #3
	...
